ccopy_reg
_reconstructor
p0
(cFWCore.ParameterSet.Config
Process
p1
c__builtin__
object
p2
Ntp3
Rp4
(dp5
S'mmtree'
p6
g0
(cFWCore.ParameterSet.Modules
EDAnalyzer
p7
g2
Ntp8
Rp9
(dp10
S'_isFrozen'
p11
I00
sS'_lineNumber'
p12
I363
sS'filterresults'
p13
g0
(cFWCore.ParameterSet.Types
InputTag
p14
g2
Ntp15
Rp16
(dp17
g11
I00
sS'_ParameterTypeBase__isTracked'
p18
I01
sS'_isModified'
p19
I00
sS'_InputTag__moduleLabel'
p20
S'TriggerResults'
p21
sS'_InputTag__processName'
p22
S'PAT'
p23
sS'_InputTag__productInstance'
p24
S''
p25
sbsS'applyDimuonFilter'
p26
g0
(cFWCore.ParameterSet.Types
bool
p27
g2
Ntp28
Rp29
(dp30
g11
I00
sg18
I01
sS'_value'
p31
I01
sg19
I00
sbsS'applyHLTFilter'
p32
g0
(g27
g2
Ntp33
Rp34
(dp35
g11
I00
sg18
I01
sg31
I00
sg19
I00
sbsS'gens'
p36
g0
(g14
g2
Ntp37
Rp38
(dp39
g11
I00
sg18
I01
sg19
I00
sg20
S'prunedGenParticles'
p40
sg22
g25
sg24
g25
sbsS'triggerresults'
p41
g0
(g14
g2
Ntp42
Rp43
(dp44
g11
I00
sg18
I01
sg19
I00
sg20
g21
sg22
S'HLT'
p45
sg24
g25
sbsS'AlgInputTag'
p46
g0
(g14
g2
Ntp47
Rp48
(dp49
g11
I00
sg18
I01
sg19
I00
sg20
S'gtStage2Digis'
p50
sg22
g25
sg24
g25
sbsS'triggerobjects'
p51
g0
(g14
g2
Ntp52
Rp53
(dp54
g11
I00
sg18
I01
sg19
I00
sg20
S'slimmedPatTrigger'
p55
sg22
g25
sg24
g25
sbsS'useLHEWeights'
p56
g0
(g27
g2
Ntp57
Rp58
(dp59
g11
I00
sg18
I01
sg31
I00
sg19
I00
sbsS'geneventinfo'
p60
g0
(g14
g2
Ntp61
Rp62
(dp63
g11
I00
sg18
I01
sg19
I00
sg20
S'generator'
p64
sg22
g25
sg24
g25
sbsS'DumpTrigSummary'
p65
g0
(g27
g2
Ntp66
Rp67
(dp68
g11
I00
sg18
I01
sg31
I01
sg19
I00
sbsS'_Parameterizable__parameterNames'
p69
(lp70
g13
ag26
ag32
aS'vertices'
p71
aS'jets'
p72
ag46
ag56
ag60
ag65
aS'badhadron'
p73
aS'DumpRecord'
p74
aS'pileupinfo'
p75
aS'l1Seeds'
p76
aS'muons'
p77
aS'xsec'
p78
ag41
aS'addEventInfo'
p79
aS'met'
p80
aS'filterHToMuMu'
p81
aS'DumpTrigResults'
p82
aS'ExtInputTag'
p83
ag51
aS'useMediumID2016'
p84
aS'genlumiheader'
p85
ag36
aS'badmuon'
p86
aS'ReadPrescalesFromFile'
p87
aS'isMC'
p88
asg73
g0
(g14
g2
Ntp89
Rp90
(dp91
g11
I00
sg18
I01
sg19
I00
sg20
S'BadChargedCandidateFilter'
p92
sg22
g25
sg24
g25
sbsS'_filename'
p93
S'/afs/cern.ch/work/d/dsperka/Zdark/CMSSW_10_2_3/src/DileptonAnalysis/AnalysisStep/test/tree_cfg.py'
p94
sg74
g0
(g27
g2
Ntp95
Rp96
(dp97
g11
I00
sg18
I01
sg31
I01
sg19
I00
sbsg81
g0
(g27
g2
Ntp98
Rp99
(dp100
g11
I00
sg18
I01
sg31
I00
sg19
I00
sbsg75
g0
(g14
g2
Ntp101
Rp102
(dp103
g11
I00
sg18
I01
sg19
I00
sg20
S'slimmedAddPileupInfo'
p104
sg22
g25
sg24
g25
sbsg76
g0
(cFWCore.ParameterSet.Types
vstring
p105
c__builtin__
list
p106
(lp107
S'L1_DoubleMu_12_5'
p108
aS'L1_DoubleMu_12_8'
p109
aS'L1_DoubleMu_13_6'
p110
aS'L1_DoubleMu_15_5'
p111
aS'L1_DoubleMu_15_7'
p112
aS'L1_TripleMu_4_4_4'
p113
aS'L1_TripleMu_5_0_0'
p114
aS'L1_TripleMu_5_3_3'
p115
aS'L1_TripleMu_5_5_3'
p116
aS'L1_QuadMu0'
p117
aS'L1_DoubleMu0er1p5_SQ_OS_dR_Max1p4'
p118
aS'L1_DoubleMu4p5er2p0_SQ_OS_Mass7to18'
p119
aS'L1_DoubleMu4_SQ_OS_dR_Max1p2'
p120
aS'L1_DoubleMu5_SQ_OS_Mass7to18'
p121
aS'L1_DoubleMu_20_2_SQ_Mass_Max20'
p122
aS'L1_DoubleMu0er1p4_SQ_OS_dR_Max1p4'
p123
aS'L1_DoubleMu4p5_SQ_OS_dR_Max1p2'
p124
aS'L1_DoubleMu6_SQ_OS'
p125
aS'L1_DoubleMu0er1p5_SQ_dR_Max1p4'
p126
aS'L1_DoubleMu0er2_SQ_dR_Max1p4'
p127
aS'L1_DoubleMu0_SQ'
p128
atp129
Rp130
(dp131
g11
I00
sg18
I01
sg19
I00
sS'_nPerLine'
p132
I1
sbsg77
g0
(g14
g2
Ntp133
Rp134
(dp135
g11
I00
sg18
I01
sg19
I00
sg20
S'slimmedMuons'
p136
sg22
g25
sg24
g25
sbsg78
g0
(cFWCore.ParameterSet.Types
double
p137
g2
Ntp138
Rp139
(dp140
g11
I00
sg18
I01
sg31
F0.001
sg19
I00
sbsg79
g0
(g27
g2
Ntp141
Rp142
(dp143
g11
I00
sg18
I01
sg31
I01
sg19
I00
sbsg80
g0
(g14
g2
Ntp144
Rp145
(dp146
g11
I00
sg18
I01
sg19
I00
sg20
S'slimmedMETs'
p147
sg22
g25
sg24
g25
sbsS'_Labelable__label'
p148
g6
sg72
g0
(g14
g2
Ntp149
Rp150
(dp151
g11
I00
sg18
I01
sg19
I00
sg20
S'slimmedJets'
p152
sg22
g25
sg24
g25
sbsg82
g0
(g27
g2
Ntp153
Rp154
(dp155
g11
I00
sg18
I01
sg31
I01
sg19
I00
sbsS'_TypedParameterizable__type'
p156
S'TreeMaker'
p157
sg19
I00
sg83
g0
(g14
g2
Ntp158
Rp159
(dp160
g11
I00
sg18
I01
sg19
I00
sg20
g50
sg22
g25
sg24
g25
sbsg84
g0
(g27
g2
Ntp161
Rp162
(dp163
g11
I00
sg18
I01
sg31
I00
sg19
I00
sbsg85
g0
(g14
g2
Ntp164
Rp165
(dp166
g11
I00
sg18
I01
sg19
I00
sg20
g64
sg22
g25
sg24
g25
sbsg71
g0
(g14
g2
Ntp167
Rp168
(dp169
g11
I00
sg18
I01
sg19
I00
sg20
S'offlineSlimmedPrimaryVertices'
p170
sg22
g25
sg24
g25
sbsg86
g0
(g14
g2
Ntp171
Rp172
(dp173
g11
I00
sg18
I01
sg19
I00
sg20
S'BadPFMuonFilter'
p174
sg22
g25
sg24
g25
sbsg87
g0
(g27
g2
Ntp175
Rp176
(dp177
g11
I00
sg18
I01
sg31
I00
sg19
I00
sbsg88
g0
(g27
g2
Ntp178
Rp179
(dp180
g11
I00
sg18
I01
sg31
I00
sg19
I00
sbsbsS'CaloGeometryBuilder'
p181
g0
(cFWCore.ParameterSet.Modules
ESProducer
p182
g2
Ntp183
Rp184
(dp185
g69
(lp186
S'SelectedCalos'
p187
asg11
I00
sg19
I00
sg12
I53
sg93
S'/cvmfs/cms.cern.ch/slc7_amd64_gcc700/cms/cmssw/CMSSW_10_2_3/python/FWCore/ParameterSet/Modules.py'
p188
sg187
g0
(g105
g106
(lp189
S'HCAL'
p190
aS'ZDC'
p191
aS'CASTOR'
p192
aS'EcalBarrel'
p193
aS'EcalEndcap'
p194
aS'EcalPreshower'
p195
aS'TOWER'
p196
atp197
Rp198
(dp199
g11
I00
sg18
I01
sg19
I00
sg132
I1
sbsg148
g181
sg156
g181
sbsS'_Process__sequences'
p200
(dp201
S'metfilters'
p202
g0
(cFWCore.ParameterSet.SequenceTypes
Sequence
p203
g2
Ntp204
Rp205
(dp206
g11
I00
sS'_seq'
p207
g0
(cFWCore.ParameterSet.SequenceTypes
_SequenceCollection
p208
g2
Ntp209
Rp210
(dp211
S'_collection'
p212
(lp213
g0
(cFWCore.ParameterSet.Modules
EDFilter
p214
g2
Ntp215
Rp216
(dp217
g69
(lp218
S'filter'
p219
aS'src'
p220
aS'cut'
p221
asg11
I00
sg221
g0
(cFWCore.ParameterSet.Types
string
p222
g2
Ntp223
Rp224
(dp225
g11
I00
sg18
I01
sg31
S'!isFake && ndof > 4 && abs(z) <= 24 && position.Rho <= 2'
p226
sg19
I00
sbsg19
I00
sg220
g0
(g14
g2
Ntp227
Rp228
(dp229
g11
I00
sg18
I01
sg19
I00
sg20
g170
sg22
g25
sg24
g25
sbsg93
g94
sg219
g0
(g27
g2
Ntp230
Rp231
(dp232
g11
I00
sg18
I01
sg31
I01
sg19
I00
sbsg12
I239
sg148
S'goodVertices'
p233
sg156
S'VertexSelector'
p234
sbag0
(g214
g2
Ntp235
Rp236
(dp237
g69
(lp238
S'innerTrackRelErr'
p239
aS'PFCandidates'
p240
aS'filterType'
p241
aS'maxDR'
p242
aS'algo'
p243
aS'taggingMode'
p244
aS'segmentCompatibility'
p245
aS'minMuonTrackRelErr'
p246
aS'minMuonPt'
p247
ag77
aS'minPtDiffRel'
p248
asg11
I00
sg239
g0
(g137
g2
Ntp249
Rp250
(dp251
g11
I00
sg18
I01
sg31
F1.0
sg19
I00
sbsg19
I01
sg93
S'/cvmfs/cms.cern.ch/slc7_amd64_gcc700/cms/cmssw/CMSSW_10_2_3/python/RecoMET/METFilters/BadPFMuonFilter_cfi.py'
p252
sg241
g0
(g222
g2
Ntp253
Rp254
(dp255
g11
I00
sg18
I01
sg31
S'BadPFMuon'
p256
sg19
I00
sbsg240
g0
(g14
g2
Ntp257
Rp258
(dp259
g11
I00
sg18
I01
sg19
I00
sg20
S'packedPFCandidates'
p260
sg22
g25
sg24
g25
sbsg245
g0
(g137
g2
Ntp261
Rp262
(dp263
g11
I00
sg18
I01
sg31
F0.3
sg19
I00
sbsg248
g0
(g137
g2
Ntp264
Rp265
(dp266
g11
I00
sg18
I01
sg31
F0.0
sg19
I00
sbsg12
I15
sg243
g0
(cFWCore.ParameterSet.Types
int32
p267
g2
Ntp268
Rp269
(dp270
g11
I00
sg18
I01
sg31
I14
sg19
I00
sbsg244
g0
(g27
g2
Ntp271
Rp272
(dp273
g11
I00
sg18
I01
sg31
I01
sg19
I00
sbsg148
g174
sg242
g0
(g137
g2
Ntp274
Rp275
(dp276
g11
I00
sg18
I01
sg31
F0.001
sg19
I00
sbsg246
g0
(g137
g2
Ntp277
Rp278
(dp279
g11
I00
sg18
I01
sg31
F2.0
sg19
I00
sbsg247
g0
(g137
g2
Ntp280
Rp281
(dp282
g11
I00
sg18
I01
sg31
I100
sg19
I00
sbsg77
g0
(g14
g2
Ntp283
Rp284
(dp285
g11
I00
sg18
I01
sg19
I00
sg20
g136
sg22
g25
sg24
g25
sbsg156
S'BadParticleFilter'
p286
sbag0
(g214
g2
Ntp287
Rp288
(dp289
g69
(lp290
g239
ag240
ag244
ag241
ag242
ag245
ag246
ag247
ag77
ag248
asg11
I00
sg239
g0
(g137
g2
Ntp291
Rp292
(dp293
g11
I00
sg18
I01
sg31
F1.0
sg19
I00
sbsg19
I01
sg93
S'/cvmfs/cms.cern.ch/slc7_amd64_gcc700/cms/cmssw/CMSSW_10_2_3/python/RecoMET/METFilters/BadChargedCandidateFilter_cfi.py'
p294
sg241
g0
(g222
g2
Ntp295
Rp296
(dp297
g11
I00
sg18
I01
sg31
S'BadChargedCandidate'
p298
sg19
I00
sbsg240
g0
(g14
g2
Ntp299
Rp300
(dp301
g11
I00
sg18
I01
sg19
I00
sg20
g260
sg22
g25
sg24
g25
sbsg245
g0
(g137
g2
Ntp302
Rp303
(dp304
g11
I00
sg18
I01
sg31
F0.3
sg19
I00
sbsg12
I14
sg248
g0
(g137
g2
Ntp305
Rp306
(dp307
g11
I00
sg18
I01
sg31
F1e-05
sg19
I00
sbsg244
g0
(g27
g2
Ntp308
Rp309
(dp310
g11
I00
sg18
I01
sg31
I01
sg19
I00
sbsg148
g92
sg242
g0
(g137
g2
Ntp311
Rp312
(dp313
g11
I00
sg18
I01
sg31
F1e-05
sg19
I00
sbsg246
g0
(g137
g2
Ntp314
Rp315
(dp316
g11
I00
sg18
I01
sg31
F2.0
sg19
I00
sbsg247
g0
(g137
g2
Ntp317
Rp318
(dp319
g11
I00
sg18
I01
sg31
F100.0
sg19
I00
sbsg77
g0
(g14
g2
Ntp320
Rp321
(dp322
g11
I00
sg18
I01
sg19
I00
sg20
g136
sg22
g25
sg24
g25
sbsg156
g286
sbasbsg148
g202
sg19
I00
sS'_tasks'
p323
g0
(cFWCore.ParameterSet.OrderedSet
OrderedSet
p324
g2
Ntp325
Rp326
(dp327
S'map'
p328
(dp329
sS'end'
p330
(lp331
Nag331
ag331
asbsbssS'_Process__source'
p332
g0
(cFWCore.ParameterSet.Modules
Source
p333
g2
Ntp334
Rp335
(dp336
g69
(lp337
S'skipEvents'
p338
aS'fileNames'
p339
asg11
I00
sg19
I00
sg12
I193
sg93
g188
sg338
g0
(cFWCore.ParameterSet.Types
uint32
p340
g2
Ntp341
Rp342
(dp343
g11
I00
sg18
I00
sg31
I0
sg19
I00
sbsg339
g0
(g105
g106
(lp344
tp345
Rp346
(dp347
g11
I00
sg18
I00
sg19
I00
sg132
I1
sbsg156
S'PoolSource'
p348
sbsS'XMLFromDBSource'
p349
g0
(g182
g2
Ntp350
Rp351
(dp352
g69
(lp353
S'rootDDName'
p354
aS'label'
p355
asg11
I00
sg19
I00
sg12
I53
sg93
g188
sg354
g0
(g222
g2
Ntp356
Rp357
(dp358
g11
I00
sg18
I01
sg31
S'cms:OCMS'
p359
sg19
I00
sbsg355
g0
(g222
g2
Ntp360
Rp361
(dp362
g11
I00
sg18
I01
sg31
S'Extended'
p363
sg19
I00
sbsg148
g349
sg156
S'XMLIdealGeometryESProducer'
p364
sbsS'TFileService'
p365
g0
(cFWCore.ParameterSet.Modules
Service
p366
g2
Ntp367
Rp368
(dp369
g69
(lp370
S'fileName'
p371
asg11
I00
sS'_inProcess'
p372
I01
sg19
I00
sg12
I11
sg93
g188
sg371
g0
(g222
g2
Ntp373
Rp374
(dp375
g11
I00
sg18
I01
sg31
S'tree.root'
p376
sg19
I00
sbsg156
g365
sbsS'hcalDDDSimConstants'
p377
g0
(g182
g2
Ntp378
Rp379
(dp380
g69
(lp381
S'appendToDataLabel'
p382
asg11
I00
sg382
g0
(g222
g2
Ntp383
Rp384
(dp385
g11
I00
sg18
I01
sg31
g25
sg19
I00
sbsg19
I00
sg12
I53
sg93
g188
sg148
g377
sg156
S'HcalDDDSimConstantsESModule'
p386
sbsS'source'
p387
g335
sS'RandomNumberGeneratorService'
p388
g0
(g366
g2
Ntp389
Rp390
(dp391
g69
(lp392
S'correctedMuons'
p393
asg11
I00
sg372
I01
sg19
I00
sg12
I11
sg93
g188
sg393
g0
(cFWCore.ParameterSet.Types
PSet
p394
g2
Ntp395
Rp396
(dp397
g11
I00
sg18
I01
sg19
I00
sS'initialSeed'
p398
g0
(g340
g2
Ntp399
Rp400
(dp401
g11
I00
sg18
I00
sg31
I1
sg19
I00
sbsg69
(lp402
g398
aS'engineName'
p403
asg403
g0
(g222
g2
Ntp404
Rp405
(dp406
g11
I00
sg18
I00
sg31
S'TRandom3'
p407
sg19
I00
sbsbsg156
g388
sbsS'CaloTowerGeometryFromDBEP'
p408
g0
(g182
g2
Ntp409
Rp410
(dp411
g69
(lp412
S'applyAlignment'
p413
asg11
I00
sg19
I00
sg12
I53
sg93
g188
sg148
g408
sg413
g0
(g27
g2
Ntp414
Rp415
(dp416
g11
I00
sg18
I01
sg31
I00
sg19
I00
sbsg156
g408
sbsS'_Process__InExtendCall'
p417
I00
sS'_Process__producers'
p418
(dp419
g393
g0
(cFWCore.ParameterSet.Modules
EDProducer
p420
g2
Ntp421
Rp422
(dp423
g69
(lp424
g88
ag220
aS'data'
p425
aS'correct'
p426
ag36
asg11
I00
sg19
I00
sg220
g0
(g14
g2
Ntp427
Rp428
(dp429
g11
I00
sg18
I01
sg19
I00
sg20
g136
sg22
g25
sg24
g25
sbsg93
g94
sg36
g0
(g14
g2
Ntp430
Rp431
(dp432
g11
I00
sg18
I01
sg19
I00
sg20
g40
sg22
g25
sg24
g25
sbsg148
g393
sg12
I248
sg88
g0
(g27
g2
Ntp433
Rp434
(dp435
g11
I00
sg18
I01
sg31
I00
sg19
I00
sbsg425
g0
(g222
g2
Ntp436
Rp437
(dp438
g11
I00
sg18
I01
sg31
S'../data/Rochester'
p439
sg19
I00
sbsg426
g0
(g27
g2
Ntp440
Rp441
(dp442
g11
I00
sg18
I01
sg31
I01
sg19
I00
sbsg156
S'RochesterCorrectedMuonProducer'
p443
sbsg50
g0
(g420
g2
Ntp444
Rp445
(dp446
g69
(lp447
S'Setup'
p448
aS'FedIds'
p449
aS'InputLabel'
p450
asg11
I00
sg19
I01
sg12
I6
sg93
S'/cvmfs/cms.cern.ch/slc7_amd64_gcc700/cms/cmssw/CMSSW_10_2_3/python/EventFilter/L1TRawToDigi/gtStage2Digis_cfi.py'
p451
sg448
g0
(g222
g2
Ntp452
Rp453
(dp454
g11
I00
sg18
I01
sg31
S'stage2::GTSetup'
p455
sg19
I00
sbsg450
g0
(g14
g2
Ntp456
Rp457
(dp458
g11
I00
sg18
I01
sg19
I00
sg20
S'hltFEDSelectorL1'
p459
sg22
g25
sg24
g25
sbsg148
g50
sg449
g0
(cFWCore.ParameterSet.Types
vint32
p460
g106
(lp461
I1404
atp462
Rp463
(dp464
g11
I00
sg18
I01
sg19
I00
sbsg156
S'L1TRawToDigi'
p465
sbsS'randomEngineStateProducer'
p466
g0
(g420
g2
Ntp467
Rp468
(dp469
g69
(lp470
sg11
I00
sg19
I00
sg12
I162
sg93
S'/cvmfs/cms.cern.ch/slc7_amd64_gcc700/cms/cmssw/CMSSW_10_2_3/python/IOMC/RandomEngine/IOMC_cff.py'
p471
sg148
g466
sg156
S'RandomEngineStateProducer'
p472
sbssS'siPixelQualityESProducer'
p473
g0
(g182
g2
Ntp474
Rp475
(dp476
g69
(lp477
S'ListOfRecordToMerge'
p478
asg11
I00
sg19
I01
sg12
I53
sg93
g188
sg478
g0
(cFWCore.ParameterSet.Types
VPSet
p479
g106
(lp480
g0
(g394
g2
Ntp481
Rp482
(dp483
g11
I00
sg18
I01
sg19
I00
sS'record'
p484
g0
(g222
g2
Ntp485
Rp486
(dp487
g11
I00
sg18
I01
sg31
S'SiPixelQualityFromDbRcd'
p488
sg19
I00
sbsS'tag'
p489
g0
(g222
g2
Ntp490
Rp491
(dp492
g11
I00
sg18
I01
sg31
g25
sg19
I00
sbsg69
(lp493
g484
ag489
asbag0
(g394
g2
Ntp494
Rp495
(dp496
g11
I00
sg18
I01
sg19
I00
sg484
g0
(g222
g2
Ntp497
Rp498
(dp499
g11
I00
sg18
I01
sg31
S'SiPixelDetVOffRcd'
p500
sg19
I00
sbsg489
g0
(g222
g2
Ntp501
Rp502
(dp503
g11
I00
sg18
I01
sg31
g25
sg19
I00
sbsg69
(lp504
g484
ag489
asbatp505
Rp506
(dp507
g11
I00
sg18
I01
sg19
I00
sg132
I1
sbsg148
g473
sg156
S'SiPixelQualityESProducer'
p508
sbsS'GlobalTag'
p509
g0
(cFWCore.ParameterSet.Modules
ESSource
p510
g2
Ntp511
Rp512
(dp513
g69
(lp514
S'DBParameters'
p515
aS'connect'
p516
aS'globaltag'
p517
aS'RefreshEachRun'
p518
aS'pfnPrefix'
p519
aS'snapshotTime'
p520
aS'toGet'
p521
aS'pfnPostfix'
p522
aS'RefreshAlways'
p523
aS'ReconnectEachRun'
p524
aS'RefreshOpenIOVs'
p525
aS'DumpStat'
p526
asg11
I00
sg93
S'/cvmfs/cms.cern.ch/slc7_amd64_gcc700/cms/cmssw/CMSSW_10_2_3/python/CondCore/ESSources/CondDBESSource_cfi.py'
p527
sg19
I01
sg517
g0
(g222
g2
Ntp528
Rp529
(dp530
g11
I00
sg18
I01
sg31
S'102X_dataRun2_v4'
p531
sg19
I01
sbsg518
g0
(g27
g2
Ntp532
Rp533
(dp534
g11
I00
sg18
I00
sg31
I00
sg19
I00
sbsg519
g0
(g222
g2
Ntp535
Rp536
(dp537
g11
I00
sg18
I00
sg31
g25
sg19
I00
sbsg520
g0
(g222
g2
Ntp538
Rp539
(dp540
g11
I00
sg18
I01
sg31
g25
sg19
I00
sbsg521
g0
(g479
g106
(lp541
tp542
Rp543
(dp544
g11
I00
sg18
I01
sg19
I00
sg132
I1
sbsg522
g0
(g222
g2
Ntp545
Rp546
(dp547
g11
I00
sg18
I00
sg31
g25
sg19
I00
sbsg515
g0
(g394
g2
Ntp548
Rp549
(dp550
g11
I00
sg18
I01
sS'authenticationPath'
p551
g0
(g222
g2
Ntp552
Rp553
(dp554
g11
I00
sg18
I00
sg31
g25
sg19
I00
sbsg19
I00
sS'messageLevel'
p555
g0
(g267
g2
Ntp556
Rp557
(dp558
g11
I00
sg18
I00
sg31
I0
sg19
I00
sbsg69
(lp559
g555
aS'security'
p560
aS'authenticationSystem'
p561
ag551
asg560
g0
(g222
g2
Ntp562
Rp563
(dp564
g11
I00
sg18
I00
sg31
g25
sg19
I00
sbsg561
g0
(g267
g2
Ntp565
Rp566
(dp567
g11
I00
sg18
I00
sg31
I0
sg19
I00
sbsbsg523
g0
(g27
g2
Ntp568
Rp569
(dp570
g11
I00
sg18
I00
sg31
I00
sg19
I00
sbsg12
I19
sg516
g0
(g222
g2
Ntp571
Rp572
(dp573
g11
I00
sg18
I01
sg31
S'frontier://FrontierProd/CMS_CONDITIONS'
p574
sg19
I00
sbsg524
g0
(g27
g2
Ntp575
Rp576
(dp577
g11
I00
sg18
I00
sg31
I00
sg19
I00
sbsg148
g509
sg525
g0
(g27
g2
Ntp578
Rp579
(dp580
g11
I00
sg18
I00
sg31
I00
sg19
I00
sbsg526
g0
(g27
g2
Ntp581
Rp582
(dp583
g11
I00
sg18
I00
sg31
I00
sg19
I00
sbsg156
S'PoolDBESSource'
p584
sbsS'_Process__endpaths'
p585
g0
(cFWCore.ParameterSet.DictTypes
SortedKeysDict
p586
c__builtin__
dict
p587
(dp588
tp589
Rp590
(dp591
S'list'
p592
(lp593
sbsS'p'
p594
g0
(cFWCore.ParameterSet.SequenceTypes
Path
p595
g2
Ntp596
Rp597
(dp598
g11
I00
sg207
g0
(g208
g2
Ntp599
Rp600
(dp601
g212
(lp602
g205
ag9
asbsg148
g594
sg19
I00
sg323
g0
(g324
g2
Ntp603
Rp604
(dp605
g328
(dp606
sg330
(lp607
Nag607
ag607
asbsbsS'MuonDetLayerGeometryESProducer'
p608
g0
(g182
g2
Ntp609
Rp610
(dp611
g69
(lp612
sg11
I00
sg19
I00
sg12
I53
sg93
g188
sg148
g608
sg156
g608
sbsS'EcalEndcapGeometryFromDBEP'
p613
g0
(g182
g2
Ntp614
Rp615
(dp616
g69
(lp617
g413
asg11
I00
sg19
I01
sg12
I53
sg93
g188
sg148
g613
sg413
g0
(g27
g2
Ntp618
Rp619
(dp620
g11
I00
sg18
I01
sg31
I01
sg19
I01
sbsg156
g613
sbsS'MessageLogger'
p621
g0
(g366
g2
Ntp622
Rp623
(dp624
g11
I00
sS'suppressInfo'
p625
g0
(g105
g106
(lp626
tp627
Rp628
(dp629
g11
I00
sg18
I00
sg19
I00
sg132
I1
sbsS'suppressDebug'
p630
g0
(g105
g106
(lp631
tp632
Rp633
(dp634
g11
I00
sg18
I00
sg19
I00
sg132
I1
sbsS'cout'
p635
g0
(g394
g2
Ntp636
Rp637
(dp638
g11
I00
sg18
I00
sS'placeholder'
p639
g0
(g27
g2
Ntp640
Rp641
(dp642
g11
I00
sg18
I00
sg31
I01
sg19
I00
sbsg19
I00
sg69
(lp643
g639
asbsg12
I11
sS'debugModules'
p644
g0
(g105
g106
(lp645
tp646
Rp647
(dp648
g11
I00
sg18
I00
sg19
I00
sg132
I1
sbsg156
g621
sS'fwkJobReports'
p649
g0
(g105
g106
(lp650
S'FrameworkJobReport'
p651
atp652
Rp653
(dp654
g11
I00
sg18
I00
sg19
I00
sg132
I1
sbsg69
(lp655
g625
aS'debugs'
p656
ag630
ag635
aS'cerr_stats'
p657
aS'warnings'
p658
aS'default'
p659
aS'statistics'
p660
aS'cerr'
p661
ag651
aS'suppressWarning'
p662
aS'errors'
p663
aS'destinations'
p664
ag644
aS'infos'
p665
aS'categories'
p666
ag649
asg660
g0
(g105
g106
(lp667
g657
atp668
Rp669
(dp670
g11
I00
sg18
I00
sg19
I00
sg132
I1
sbsg93
g188
sg664
g0
(g105
g106
(lp671
g635
ag661
atp672
Rp673
(dp674
g11
I00
sg18
I00
sg19
I01
sg132
I1
sbsg656
g0
(g394
g2
Ntp675
Rp676
(dp677
g11
I00
sg18
I00
sg639
g0
(g27
g2
Ntp678
Rp679
(dp680
g11
I00
sg18
I00
sg31
I01
sg19
I00
sbsg19
I00
sg69
(lp681
g639
asbsg658
g0
(g394
g2
Ntp682
Rp683
(dp684
g11
I00
sg18
I00
sg639
g0
(g27
g2
Ntp685
Rp686
(dp687
g11
I00
sg18
I00
sg31
I01
sg19
I00
sbsg19
I00
sg69
(lp688
g639
asbsg663
g0
(g394
g2
Ntp689
Rp690
(dp691
g11
I00
sg18
I00
sg639
g0
(g27
g2
Ntp692
Rp693
(dp694
g11
I00
sg18
I00
sg31
I01
sg19
I00
sbsg19
I00
sg69
(lp695
g639
asbsg651
g0
(g394
g2
Ntp696
Rp697
(dp698
g11
I00
sg18
I00
sg19
I00
sg659
g0
(g394
g2
Ntp699
Rp700
(dp701
g11
I00
sg18
I00
sS'limit'
p702
g0
(g267
g2
Ntp703
Rp704
(dp705
g11
I00
sg18
I00
sg31
I0
sg19
I00
sbsg19
I00
sg69
(lp706
g702
asbsS'FwkJob'
p707
g0
(g394
g2
Ntp708
Rp709
(dp710
g11
I00
sg18
I00
sg19
I00
sg702
g0
(g267
g2
Ntp711
Rp712
(dp713
g11
I00
sg18
I00
sg31
I10000000
sg19
I00
sbsg69
(lp714
S'optionalPSet'
p715
ag702
asg715
g0
(g27
g2
Ntp716
Rp717
(dp718
g11
I00
sg18
I00
sg31
I01
sg19
I00
sbsbsg69
(lp719
g659
ag715
ag707
asg715
g0
(g27
g2
Ntp720
Rp721
(dp722
g11
I00
sg18
I00
sg31
I01
sg19
I00
sbsbsg662
g0
(g105
g106
(lp723
tp724
Rp725
(dp726
g11
I00
sg18
I00
sg19
I00
sg132
I1
sbsg665
g0
(g394
g2
Ntp727
Rp728
(dp729
g11
I00
sg18
I00
sg19
I00
sS'Root_NoDictionary'
p730
g0
(g394
g2
Ntp731
Rp732
(dp733
g11
I00
sg18
I00
sg19
I00
sg702
g0
(g267
g2
Ntp734
Rp735
(dp736
g11
I00
sg18
I00
sg31
I0
sg19
I00
sbsg69
(lp737
g715
ag702
asg715
g0
(g27
g2
Ntp738
Rp739
(dp740
g11
I00
sg18
I00
sg31
I01
sg19
I00
sbsbsg69
(lp741
g715
ag730
ag639
asg715
g0
(g27
g2
Ntp742
Rp743
(dp744
g11
I00
sg18
I00
sg31
I01
sg19
I00
sbsg639
g0
(g27
g2
Ntp745
Rp746
(dp747
g11
I00
sg18
I00
sg31
I01
sg19
I00
sbsbsg666
g0
(g105
g106
(lp748
g707
aS'FwkReport'
p749
aS'FwkSummary'
p750
ag730
atp751
Rp752
(dp753
g11
I00
sg18
I00
sg19
I00
sg132
I1
sbsg19
I01
sg657
g0
(g394
g2
Ntp754
Rp755
(dp756
g11
I00
sg18
I00
sg19
I00
sg715
g0
(g27
g2
Ntp757
Rp758
(dp759
g11
I00
sg18
I00
sg31
I01
sg19
I00
sbsg69
(lp760
S'threshold'
p761
aS'output'
p762
ag715
asg761
g0
(g222
g2
Ntp763
Rp764
(dp765
g11
I00
sg18
I00
sg31
S'WARNING'
p766
sg19
I00
sbsg762
g0
(g222
g2
Ntp767
Rp768
(dp769
g11
I00
sg18
I00
sg31
g661
sg19
I00
sbsbsg659
g0
(g394
g2
Ntp770
Rp771
(dp772
g11
I00
sg18
I00
sg19
I00
sg69
(lp773
sbsg372
I01
sg661
g0
(g394
g2
Ntp774
Rp775
(dp776
g11
I00
sg18
I00
sS'noTimeStamps'
p777
g0
(g27
g2
Ntp778
Rp779
(dp780
g11
I00
sg18
I00
sg31
I00
sg19
I00
sbsg749
g0
(g394
g2
Ntp781
Rp782
(dp783
g11
I00
sg18
I00
sg19
I01
sS'reportEvery'
p784
g0
(g267
g2
Ntp785
Rp786
(dp787
g11
I00
sg18
I00
sg31
I100
sg19
I01
sbsg702
g0
(g267
g2
Ntp788
Rp789
(dp790
g11
I00
sg18
I00
sg31
I10000000
sg19
I00
sbsg69
(lp791
g784
ag715
ag702
asg715
g0
(g27
g2
Ntp792
Rp793
(dp794
g11
I00
sg18
I00
sg31
I01
sg19
I00
sbsbsg19
I00
sg659
g0
(g394
g2
Ntp795
Rp796
(dp797
g11
I00
sg18
I00
sg702
g0
(g267
g2
Ntp798
Rp799
(dp800
g11
I00
sg18
I00
sg31
I10000000
sg19
I00
sbsg19
I00
sg69
(lp801
g702
asbsg730
g0
(g394
g2
Ntp802
Rp803
(dp804
g11
I00
sg18
I00
sg19
I00
sg702
g0
(g267
g2
Ntp805
Rp806
(dp807
g11
I00
sg18
I00
sg31
I0
sg19
I00
sbsg69
(lp808
g715
ag702
asg715
g0
(g27
g2
Ntp809
Rp810
(dp811
g11
I00
sg18
I00
sg31
I01
sg19
I00
sbsbsS'INFO'
p812
g0
(g394
g2
Ntp813
Rp814
(dp815
g11
I00
sg18
I00
sg702
g0
(g267
g2
Ntp816
Rp817
(dp818
g11
I00
sg18
I00
sg31
I0
sg19
I00
sbsg19
I00
sg69
(lp819
g702
asbsg715
g0
(g27
g2
Ntp820
Rp821
(dp822
g11
I00
sg18
I00
sg31
I01
sg19
I00
sbsg707
g0
(g394
g2
Ntp823
Rp824
(dp825
g11
I00
sg18
I00
sg19
I00
sg702
g0
(g267
g2
Ntp826
Rp827
(dp828
g11
I00
sg18
I00
sg31
I0
sg19
I00
sbsg69
(lp829
g715
ag702
asg715
g0
(g27
g2
Ntp830
Rp831
(dp832
g11
I00
sg18
I00
sg31
I01
sg19
I00
sbsbsg750
g0
(g394
g2
Ntp833
Rp834
(dp835
g11
I00
sg18
I00
sg19
I00
sg784
g0
(g267
g2
Ntp836
Rp837
(dp838
g11
I00
sg18
I00
sg31
I1
sg19
I00
sbsg702
g0
(g267
g2
Ntp839
Rp840
(dp841
g11
I00
sg18
I00
sg31
I10000000
sg19
I00
sbsg69
(lp842
g784
ag715
ag702
asg715
g0
(g27
g2
Ntp843
Rp844
(dp845
g11
I00
sg18
I00
sg31
I01
sg19
I00
sbsbsg69
(lp846
g812
ag777
ag749
ag659
ag730
ag761
ag707
ag750
ag715
asg761
g0
(g222
g2
Ntp847
Rp848
(dp849
g11
I00
sg18
I00
sg31
g812
sg19
I00
sbsbsbsS'_Process__services'
p850
(dp851
g621
g623
sS'DQMStore'
p852
g0
(g366
g2
Ntp853
Rp854
(dp855
g69
(lp856
S'referenceFileName'
p857
aS'verbose'
p858
aS'collateHistograms'
p859
aS'enableMultiThread'
p860
aS'forceResetOnBeginLumi'
p861
aS'LSbasedMode'
p862
aS'verboseQT'
p863
asg11
I00
sg372
I01
sg858
g0
(g267
g2
Ntp864
Rp865
(dp866
g11
I00
sg18
I00
sg31
I0
sg19
I00
sbsg859
g0
(g27
g2
Ntp867
Rp868
(dp869
g11
I00
sg18
I00
sg31
I00
sg19
I00
sbsg857
g0
(g222
g2
Ntp870
Rp871
(dp872
g11
I00
sg18
I00
sg31
g25
sg19
I00
sbsg860
g0
(g27
g2
Ntp873
Rp874
(dp875
g11
I00
sg18
I00
sg31
I00
sg19
I00
sbsg861
g0
(g27
g2
Ntp876
Rp877
(dp878
g11
I00
sg18
I00
sg31
I00
sg19
I00
sbsg12
I11
sg862
g0
(g27
g2
Ntp879
Rp880
(dp881
g11
I00
sg18
I00
sg31
I00
sg19
I00
sbsg93
g188
sg863
g0
(g267
g2
Ntp882
Rp883
(dp884
g11
I00
sg18
I00
sg31
I0
sg19
I00
sbsg156
g852
sg19
I00
sbsg388
g390
sg365
g368
ssg852
g854
sS'HcalTimeSlewEP'
p885
g0
(g510
g2
Ntp886
Rp887
(dp888
g69
(lp889
S'timeSlewParametersM3'
p890
aS'timeSlewParametersM2'
p891
ag382
asg11
I00
sg890
g0
(g479
g106
(lp892
g0
(g394
g2
Ntp893
Rp894
(dp895
g11
I00
sg18
I01
sS'tspar2'
p896
g0
(g137
g2
Ntp897
Rp898
(dp899
g11
I00
sg18
I01
sg31
F0.0
sg19
I00
sbsg19
I00
sS'tspar0'
p900
g0
(g137
g2
Ntp901
Rp902
(dp903
g11
I00
sg18
I01
sg31
F12.2999
sg19
I00
sbsS'tspar1'
p904
g0
(g137
g2
Ntp905
Rp906
(dp907
g11
I00
sg18
I01
sg31
F-2.19142
sg19
I00
sbsS'tspar1_siPM'
p908
g0
(g137
g2
Ntp909
Rp910
(dp911
g11
I00
sg18
I01
sg31
F0.0
sg19
I00
sbsS'cap'
p912
g0
(g137
g2
Ntp913
Rp914
(dp915
g11
I00
sg18
I01
sg31
F6.0
sg19
I00
sbsS'tspar0_siPM'
p916
g0
(g137
g2
Ntp917
Rp918
(dp919
g11
I00
sg18
I01
sg31
F0.0
sg19
I00
sbsg69
(lp920
g896
ag900
ag904
ag908
ag912
ag916
aS'tspar2_siPM'
p921
asg921
g0
(g137
g2
Ntp922
Rp923
(dp924
g11
I00
sg18
I01
sg31
F0.0
sg19
I00
sbsbag0
(g394
g2
Ntp925
Rp926
(dp927
g11
I00
sg18
I01
sg896
g0
(g137
g2
Ntp928
Rp929
(dp930
g11
I00
sg18
I01
sg31
F32.0
sg19
I00
sbsg19
I00
sg900
g0
(g137
g2
Ntp931
Rp932
(dp933
g11
I00
sg18
I01
sg31
F15.5
sg19
I00
sbsg904
g0
(g137
g2
Ntp934
Rp935
(dp936
g11
I00
sg18
I01
sg31
F-3.2
sg19
I00
sbsg908
g0
(g137
g2
Ntp937
Rp938
(dp939
g11
I00
sg18
I01
sg31
F0.0
sg19
I00
sbsg912
g0
(g137
g2
Ntp940
Rp941
(dp942
g11
I00
sg18
I01
sg31
F6.0
sg19
I00
sbsg916
g0
(g137
g2
Ntp943
Rp944
(dp945
g11
I00
sg18
I01
sg31
F0.0
sg19
I00
sbsg69
(lp946
g896
ag900
ag904
ag908
ag912
ag916
ag921
asg921
g0
(g137
g2
Ntp947
Rp948
(dp949
g11
I00
sg18
I01
sg31
F0.0
sg19
I00
sbsbag0
(g394
g2
Ntp950
Rp951
(dp952
g11
I00
sg18
I01
sg896
g0
(g137
g2
Ntp953
Rp954
(dp955
g11
I00
sg18
I01
sg31
F0.0
sg19
I00
sbsg19
I00
sg900
g0
(g137
g2
Ntp956
Rp957
(dp958
g11
I00
sg18
I01
sg31
F12.2999
sg19
I00
sbsg904
g0
(g137
g2
Ntp959
Rp960
(dp961
g11
I00
sg18
I01
sg31
F-2.19142
sg19
I00
sbsg908
g0
(g137
g2
Ntp962
Rp963
(dp964
g11
I00
sg18
I01
sg31
F0.0
sg19
I00
sbsg912
g0
(g137
g2
Ntp965
Rp966
(dp967
g11
I00
sg18
I01
sg31
F6.0
sg19
I00
sbsg916
g0
(g137
g2
Ntp968
Rp969
(dp970
g11
I00
sg18
I01
sg31
F0.0
sg19
I00
sbsg69
(lp971
g896
ag900
ag904
ag908
ag912
ag916
ag921
asg921
g0
(g137
g2
Ntp972
Rp973
(dp974
g11
I00
sg18
I01
sg31
F0.0
sg19
I00
sbsbag0
(g394
g2
Ntp975
Rp976
(dp977
g11
I00
sg18
I01
sg896
g0
(g137
g2
Ntp978
Rp979
(dp980
g11
I00
sg18
I01
sg31
F0.0
sg19
I00
sbsg19
I00
sg900
g0
(g137
g2
Ntp981
Rp982
(dp983
g11
I00
sg18
I01
sg31
F12.2999
sg19
I00
sbsg904
g0
(g137
g2
Ntp984
Rp985
(dp986
g11
I00
sg18
I01
sg31
F-2.19142
sg19
I00
sbsg908
g0
(g137
g2
Ntp987
Rp988
(dp989
g11
I00
sg18
I01
sg31
F0.0
sg19
I00
sbsg912
g0
(g137
g2
Ntp990
Rp991
(dp992
g11
I00
sg18
I01
sg31
F6.0
sg19
I00
sbsg916
g0
(g137
g2
Ntp993
Rp994
(dp995
g11
I00
sg18
I01
sg31
F0.0
sg19
I00
sbsg69
(lp996
g896
ag900
ag904
ag908
ag912
ag916
ag921
asg921
g0
(g137
g2
Ntp997
Rp998
(dp999
g11
I00
sg18
I01
sg31
F0.0
sg19
I00
sbsbatp1000
Rp1001
(dp1002
g11
I00
sg18
I01
sg19
I00
sg132
I1
sbsg891
g0
(g479
g106
(lp1003
g0
(g394
g2
Ntp1004
Rp1005
(dp1006
g11
I00
sg18
I01
sg19
I00
sS'slope'
p1007
g0
(g137
g2
Ntp1008
Rp1009
(dp1010
g11
I00
sg18
I01
sg31
F-3.178648
sg19
I00
sbsS'tmax'
p1011
g0
(g137
g2
Ntp1012
Rp1013
(dp1014
g11
I00
sg18
I01
sg31
F16.0
sg19
I00
sbsS'tzero'
p1015
g0
(g137
g2
Ntp1016
Rp1017
(dp1018
g11
I00
sg18
I01
sg31
F23.960177
sg19
I00
sbsg69
(lp1019
g1007
ag1011
ag1015
asbag0
(g394
g2
Ntp1020
Rp1021
(dp1022
g11
I00
sg18
I01
sg19
I00
sg1007
g0
(g137
g2
Ntp1023
Rp1024
(dp1025
g11
I00
sg18
I01
sg31
F-1.556668
sg19
I00
sbsg1011
g0
(g137
g2
Ntp1026
Rp1027
(dp1028
g11
I00
sg18
I01
sg31
F10.0
sg19
I00
sbsg1015
g0
(g137
g2
Ntp1029
Rp1030
(dp1031
g11
I00
sg18
I01
sg31
F13.307784
sg19
I00
sbsg69
(lp1032
g1007
ag1011
ag1015
asbag0
(g394
g2
Ntp1033
Rp1034
(dp1035
g11
I00
sg18
I01
sg19
I00
sg1007
g0
(g137
g2
Ntp1036
Rp1037
(dp1038
g11
I00
sg18
I01
sg31
F-1.075824
sg19
I00
sbsg1011
g0
(g137
g2
Ntp1039
Rp1040
(dp1041
g11
I00
sg18
I01
sg31
F6.25
sg19
I00
sbsg1015
g0
(g137
g2
Ntp1042
Rp1043
(dp1044
g11
I00
sg18
I01
sg31
F9.109694
sg19
I00
sbsg69
(lp1045
g1007
ag1011
ag1015
asbatp1046
Rp1047
(dp1048
g11
I00
sg18
I01
sg19
I00
sg132
I1
sbsg19
I00
sg12
I23
sg93
S'/cvmfs/cms.cern.ch/slc7_amd64_gcc700/cms/cmssw/CMSSW_10_2_3/python/CalibCalorimetry/HcalPlugins/HcalTimeSlew_cff.py'
p1049
sg382
g0
(g222
g2
Ntp1050
Rp1051
(dp1052
g11
I00
sg18
I01
sg31
S'HBHE'
p1053
sg19
I00
sbsg148
g885
sg156
g885
sbsS'CastorGeometryFromDBEP'
p1054
g0
(g182
g2
Ntp1055
Rp1056
(dp1057
g69
(lp1058
g413
asg11
I00
sg19
I00
sg12
I53
sg93
g188
sg148
g1054
sg413
g0
(g27
g2
Ntp1059
Rp1060
(dp1061
g11
I00
sg18
I01
sg31
I00
sg19
I00
sbsg156
g1054
sbsg393
g422
sS'HFRecalParameterBlock'
p1062
g0
(g394
g2
Ntp1063
Rp1064
(dp1065
g11
I00
sg18
I01
sg19
I00
sS'HFdepthTwoParameterA'
p1066
g0
(cFWCore.ParameterSet.Types
vdouble
p1067
g106
(lp1068
F0.002861
aF0.004168
aF0.0064
aF0.008388
aF0.011601
aF0.014425
aF0.018633
aF0.023232
aF0.028274
aF0.035447
aF0.051579
aF0.086593
atp1069
Rp1070
(dp1071
g11
I00
sg18
I01
sg19
I00
sbsS'HFdepthOneParameterA'
p1072
g0
(g1067
g106
(lp1073
F0.004123
aF0.00602
aF0.008201
aF0.010489
aF0.013379
aF0.016997
aF0.021464
aF0.027371
aF0.034195
aF0.044807
aF0.058939
aF0.125497
atp1074
Rp1075
(dp1076
g11
I00
sg18
I01
sg19
I00
sbsS'HFdepthOneParameterB'
p1077
g0
(g1067
g106
(lp1078
F-4e-06
aF-2e-06
aF0.0
aF4e-06
aF1.5e-05
aF2.6e-05
aF6.3e-05
aF8.4e-05
aF0.00016
aF0.000107
aF0.000425
aF0.000209
atp1079
Rp1080
(dp1081
g11
I00
sg18
I01
sg19
I00
sbsS'HFdepthTwoParameterB'
p1082
g0
(g1067
g106
(lp1083
F-2e-06
aF-0.0
aF-7e-06
aF-6e-06
aF-2e-06
aF1e-06
aF1.9e-05
aF3.1e-05
aF6.7e-05
aF1.2e-05
aF0.000157
aF-3e-06
atp1084
Rp1085
(dp1086
g11
I00
sg18
I01
sg19
I00
sbsg69
(lp1087
g1072
ag1077
ag1082
ag1066
asg148
g1062
sbsS'trackerGeometryDB'
p1088
g0
(g182
g2
Ntp1089
Rp1090
(dp1091
g69
(lp1092
g382
aS'fromDDD'
p1093
ag413
aS'alignmentsLabel'
p1094
asg11
I00
sg382
g0
(g222
g2
Ntp1095
Rp1096
(dp1097
g11
I00
sg18
I01
sg31
g25
sg19
I00
sbsg19
I00
sg1094
g0
(g222
g2
Ntp1098
Rp1099
(dp1100
g11
I00
sg18
I01
sg31
g25
sg19
I00
sbsg93
g188
sg12
I53
sg148
g1088
sg1093
g0
(g27
g2
Ntp1101
Rp1102
(dp1103
g11
I00
sg18
I01
sg31
I00
sg19
I00
sbsg413
g0
(g27
g2
Ntp1104
Rp1105
(dp1106
g11
I00
sg18
I01
sg31
I01
sg19
I00
sbsg156
S'TrackerDigiGeometryESModule'
p1107
sbsS'eegeom'
p1108
g0
(g510
g2
Ntp1109
Rp1110
(dp1111
g69
(lp1112
S'iovIsRunNotTime'
p1113
aS'recordName'
p1114
aS'firstValid'
p1115
asg11
I00
sg19
I00
sg12
I6
sg1114
g0
(g222
g2
Ntp1116
Rp1117
(dp1118
g11
I00
sg18
I01
sg31
S'EcalMappingRcd'
p1119
sg19
I00
sbsg93
S'/cvmfs/cms.cern.ch/slc7_amd64_gcc700/cms/cmssw/CMSSW_10_2_3/python/Geometry/EcalMapping/EcalMappingRecord_cfi.py'
p1120
sg1115
g0
(cFWCore.ParameterSet.Types
vuint32
p1121
g106
(lp1122
I1
atp1123
Rp1124
(dp1125
g11
I00
sg18
I01
sg19
I00
sbsg148
g1108
sg1113
g0
(g27
g2
Ntp1126
Rp1127
(dp1128
g11
I00
sg18
I01
sg31
I01
sg19
I00
sbsg156
S'EmptyESSource'
p1129
sbsS'_Process__vpsets'
p1130
(dp1131
sg202
g205
sS'EcalTrigTowerConstituentsMapBuilder'
p1132
g0
(g182
g2
Ntp1133
Rp1134
(dp1135
g69
(lp1136
S'MapFile'
p1137
asg11
I00
sg19
I00
sg1137
g0
(g222
g2
Ntp1138
Rp1139
(dp1140
g11
I00
sg18
I00
sg31
S'Geometry/EcalMapping/data/EndCap_TTMap.txt'
p1141
sg19
I00
sbsg93
g188
sg12
I53
sg148
g1132
sg156
g1132
sbsS'siStripBackPlaneCorrectionDepESProducer'
p1142
g0
(g182
g2
Ntp1143
Rp1144
(dp1145
g69
(lp1146
S'LatencyRecord'
p1147
aS'BackPlaneCorrectionDeconvMode'
p1148
aS'BackPlaneCorrectionPeakMode'
p1149
asg11
I00
sg19
I00
sg12
I53
sg93
g188
sg1147
g0
(g394
g2
Ntp1150
Rp1151
(dp1152
g11
I00
sg18
I01
sg19
I00
sg355
g0
(g222
g2
Ntp1153
Rp1154
(dp1155
g11
I00
sg18
I00
sg31
g25
sg19
I00
sbsg484
g0
(g222
g2
Ntp1156
Rp1157
(dp1158
g11
I00
sg18
I01
sg31
S'SiStripLatencyRcd'
p1159
sg19
I00
sbsg69
(lp1160
g484
ag355
asbsg1149
g0
(g394
g2
Ntp1161
Rp1162
(dp1163
g11
I00
sg18
I01
sg19
I00
sg355
g0
(g222
g2
Ntp1164
Rp1165
(dp1166
g11
I00
sg18
I00
sg31
S'peak'
p1167
sg19
I00
sbsg484
g0
(g222
g2
Ntp1168
Rp1169
(dp1170
g11
I00
sg18
I01
sg31
S'SiStripBackPlaneCorrectionRcd'
p1171
sg19
I00
sbsg69
(lp1172
g484
ag355
asbsg148
g1142
sg1148
g0
(g394
g2
Ntp1173
Rp1174
(dp1175
g11
I00
sg18
I01
sg19
I00
sg355
g0
(g222
g2
Ntp1176
Rp1177
(dp1178
g11
I00
sg18
I00
sg31
S'deconvolution'
p1179
sg19
I00
sbsg484
g0
(g222
g2
Ntp1180
Rp1181
(dp1182
g11
I00
sg18
I01
sg31
g1171
sg19
I00
sbsg69
(lp1183
g484
ag355
asbsg156
S'SiStripBackPlaneCorrectionDepESProducer'
p1184
sbsS'_Process__esprefers'
p1185
(dp1186
S'es_prefer_hcalHardcode'
p1187
g0
(cFWCore.ParameterSet.Modules
ESPrefer
p1188
g2
Ntp1189
Rp1190
(dp1191
g69
(lp1192
sg11
I00
sg19
I00
sS'_targetLabel'
p1193
S'es_hardcode'
p1194
sg12
I89
sg93
g188
sg148
g1187
sg156
S'HcalHardcodeCalibrations'
p1195
sbssS'_Process__isStrict'
p1196
I00
sS'HepPDTESSource'
p1197
g0
(g510
g2
Ntp1198
Rp1199
(dp1200
g69
(lp1201
S'pdtFileName'
p1202
asg11
I00
sg1202
g0
(cFWCore.ParameterSet.Types
FileInPath
p1203
g2
Ntp1204
Rp1205
(dp1206
g11
I00
sg18
I01
sg31
S'SimGeneral/HepPDTESSource/data/pythiaparticle.tbl'
p1207
sg19
I00
sbsg19
I00
sg12
I4
sg93
S'/cvmfs/cms.cern.ch/slc7_amd64_gcc700/cms/cmssw/CMSSW_10_2_3/python/SimGeneral/HepPDTESSource/pythiapdt_cfi.py'
p1208
sg148
g1197
sg156
g1197
sbsS'_Process__outputmodules'
p1209
(dp1210
sS'_Process__analyzers'
p1211
(dp1212
g6
g9
sS'gentree'
p1213
g0
(g7
g2
Ntp1214
Rp1215
(dp1216
g69
(lp1217
g56
aS'genInfo'
p1218
aS'lheInfo'
p1219
ag75
asg11
I00
sg19
I00
sg1218
g0
(g14
g2
Ntp1220
Rp1221
(dp1222
g11
I00
sg18
I01
sg19
I00
sg20
g64
sg22
g25
sg24
g25
sbsg93
g94
sg1219
g0
(g14
g2
Ntp1223
Rp1224
(dp1225
g11
I00
sg18
I01
sg19
I00
sg20
S'externalLHEProducer'
p1226
sg22
g25
sg24
g25
sbsg148
g1213
sg12
I232
sg75
g0
(g14
g2
Ntp1227
Rp1228
(dp1229
g11
I00
sg18
I01
sg19
I00
sg20
S'addPileupInfo'
p1230
sg22
g25
sg24
g25
sbsg56
g0
(g27
g2
Ntp1231
Rp1232
(dp1233
g11
I00
sg18
I01
sg31
I00
sg19
I00
sbsg156
S'LHEWeightsTreeMaker'
p1234
sbssS'idealForDigiTrackerGeometry'
p1235
g0
(g182
g2
Ntp1236
Rp1237
(dp1238
g69
(lp1239
g382
ag1093
ag413
ag1094
asg11
I00
sg382
g0
(g222
g2
Ntp1240
Rp1241
(dp1242
g11
I00
sg18
I01
sg31
S'idealForDigi'
p1243
sg19
I01
sbsg19
I01
sg1094
g0
(g222
g2
Ntp1244
Rp1245
(dp1246
g11
I00
sg18
I01
sg31
S'fakeForIdeal'
p1247
sg19
I01
sbsg93
S'/cvmfs/cms.cern.ch/slc7_amd64_gcc700/cms/cmssw/CMSSW_10_2_3/python/Geometry/TrackerGeometryBuilder/idealForDigiTrackerGeometryDB_cff.py'
p1248
sg12
I8
sg148
g1235
sg1093
g0
(g27
g2
Ntp1249
Rp1250
(dp1251
g11
I00
sg18
I01
sg31
I00
sg19
I00
sbsg413
g0
(g27
g2
Ntp1252
Rp1253
(dp1254
g11
I00
sg18
I01
sg31
I00
sg19
I01
sbsg156
g1107
sbsS'_Process__looper'
p1255
NsS'_Process__tasks'
p1256
(dp1257
sS'_Process__paths'
p1258
g0
(g586
g587
(dp1259
g594
g597
stp1260
Rp1261
(dp1262
g592
(lp1263
g594
asbsg233
g216
sS'MuonNumberingInitialization'
p1264
g0
(g182
g2
Ntp1265
Rp1266
(dp1267
g69
(lp1268
sg11
I00
sg19
I00
sg12
I53
sg93
g188
sg148
g1264
sg156
g1264
sbsS'options'
p1269
g0
(g394
g2
Ntp1270
Rp1271
(dp1272
g11
I00
sg18
I00
sg19
I00
sS'wantSummary'
p1273
g0
(g27
g2
Ntp1274
Rp1275
(dp1276
g11
I00
sg18
I00
sg31
I00
sg19
I00
sbsg69
(lp1277
g1273
aS'allowUnscheduled'
p1278
asg148
g1269
sg1278
g0
(g27
g2
Ntp1279
Rp1280
(dp1281
g11
I00
sg18
I00
sg31
I01
sg19
I00
sbsbsS'DTGeometryESModule'
p1282
g0
(g182
g2
Ntp1283
Rp1284
(dp1285
g69
(lp1286
g382
ag1093
ag413
ag1094
asg11
I00
sg382
g0
(g222
g2
Ntp1287
Rp1288
(dp1289
g11
I00
sg18
I01
sg31
g25
sg19
I00
sbsg19
I00
sg1094
g0
(g222
g2
Ntp1290
Rp1291
(dp1292
g11
I00
sg18
I01
sg31
g25
sg19
I00
sbsg93
g188
sg12
I53
sg148
g1282
sg1093
g0
(g27
g2
Ntp1293
Rp1294
(dp1295
g11
I00
sg18
I01
sg31
I00
sg19
I00
sbsg413
g0
(g27
g2
Ntp1296
Rp1297
(dp1298
g11
I00
sg18
I01
sg31
I01
sg19
I00
sbsg156
g1282
sbsS'VolumeBasedMagneticFieldESProducer'
p1299
g0
(g182
g2
Ntp1300
Rp1301
(dp1302
g69
(lp1303
S'valueOverride'
p1304
aS'debugBuilder'
p1305
ag355
asg11
I00
sg1304
g0
(g267
g2
Ntp1306
Rp1307
(dp1308
g11
I00
sg18
I01
sg31
I-1
sg19
I00
sbsg12
I53
sg93
g188
sg355
g0
(g222
g2
Ntp1309
Rp1310
(dp1311
g11
I00
sg18
I00
sg31
g25
sg19
I00
sbsg1305
g0
(g27
g2
Ntp1312
Rp1313
(dp1314
g11
I00
sg18
I00
sg31
I00
sg19
I00
sbsg148
g1299
sg156
S'VolumeBasedMagneticFieldESProducerFromDB'
p1315
sg19
I00
sbsS'CaloTopologyBuilder'
p1316
g0
(g182
g2
Ntp1317
Rp1318
(dp1319
g69
(lp1320
sg11
I00
sg19
I00
sg12
I53
sg93
g188
sg148
g1316
sg156
g1316
sbsS'SiStripRecHitMatcherESProducer'
p1321
g0
(g182
g2
Ntp1322
Rp1323
(dp1324
g69
(lp1325
S'PreFilter'
p1326
aS'ComponentName'
p1327
aS'NSigmaInside'
p1328
asg11
I00
sg19
I00
sg93
g188
sg1327
g0
(g222
g2
Ntp1329
Rp1330
(dp1331
g11
I00
sg18
I01
sg31
S'StandardMatcher'
p1332
sg19
I00
sbsg1326
g0
(g27
g2
Ntp1333
Rp1334
(dp1335
g11
I00
sg18
I01
sg31
I00
sg19
I00
sbsg12
I53
sg1328
g0
(g137
g2
Ntp1336
Rp1337
(dp1338
g11
I00
sg18
I01
sg31
F3.0
sg19
I00
sbsg148
g1321
sg156
g1321
sbsS'_Process__psets'
p1339
(dp1340
S'maxEvents'
p1341
g0
(g394
g2
Ntp1342
Rp1343
(dp1344
g11
I00
sg18
I00
sg19
I00
sg69
(lp1345
S'input'
p1346
asg148
g1341
sg1346
g0
(g267
g2
Ntp1347
Rp1348
(dp1349
g11
I00
sg18
I00
sg31
I-1
sg19
I00
sbsbsg1062
g1064
sg1269
g1271
ssS'_Process__essources'
p1350
(dp1351
g1197
g1199
sg1108
g1110
sg1194
g0
(g510
g2
Ntp1352
Rp1353
(dp1354
g11
I00
sg12
I172
sS'useHEUpgrade'
p1355
g0
(g27
g2
Ntp1356
Rp1357
(dp1358
g11
I00
sg18
I01
sg31
I00
sg19
I00
sbsS'HBRecalibration'
p1359
g0
(g27
g2
Ntp1360
Rp1361
(dp1362
g11
I00
sg18
I01
sg31
I00
sg19
I00
sbsS'useLayer0Weight'
p1363
g0
(g27
g2
Ntp1364
Rp1365
(dp1366
g11
I00
sg18
I01
sg31
I00
sg19
I00
sbsS'HEmeanenergies'
p1367
g0
(g1203
g2
Ntp1368
Rp1369
(dp1370
g11
I00
sg18
I01
sg31
S'CalibCalorimetry/HcalPlugins/data/meanenergiesHE.txt'
p1371
sg19
I00
sbsg1062
g1064
sS'heUpgrade'
p1372
g0
(g394
g2
Ntp1373
Rp1374
(dp1375
g11
I00
sg18
I01
sS'qieType'
p1376
g0
(g267
g2
Ntp1377
Rp1378
(dp1379
g11
I00
sg18
I01
sg31
I2
sg19
I00
sbsg19
I00
sS'pedestalWidth'
p1380
g0
(g137
g2
Ntp1381
Rp1382
(dp1383
g11
I00
sg18
I01
sg31
F1.5
sg19
I00
sbsS'recoShape'
p1384
g0
(g267
g2
Ntp1385
Rp1386
(dp1387
g11
I00
sg18
I01
sg31
I206
sg19
I00
sbsS'zsThreshold'
p1388
g0
(g267
g2
Ntp1389
Rp1390
(dp1391
g11
I00
sg18
I01
sg31
I16
sg19
I00
sbsS'darkCurrent'
p1392
g0
(g1067
g106
(lp1393
F0.01
aF0.015
atp1394
Rp1395
(dp1396
g11
I00
sg18
I01
sg19
I00
sbsS'qieOffset'
p1397
g0
(g1067
g106
(lp1398
F0.0
aF0.0
aF0.0
aF0.0
atp1399
Rp1400
(dp1401
g11
I00
sg18
I01
sg19
I00
sbsS'qieSlope'
p1402
g0
(g1067
g106
(lp1403
F0.05376
aF0.05376
aF0.05376
aF0.05376
atp1404
Rp1405
(dp1406
g11
I00
sg18
I01
sg19
I00
sbsS'radiationDamage'
p1407
g0
(g394
g2
Ntp1408
Rp1409
(dp1410
g11
I00
sg18
I01
sS'temperatureNew'
p1411
g0
(g137
g2
Ntp1412
Rp1413
(dp1414
g11
I00
sg18
I01
sg31
I5
sg19
I00
sbsg19
I00
sS'depVsNeutrons'
p1415
g0
(g1067
g106
(lp1416
F5.543e-10
aF8.012e-10
atp1417
Rp1418
(dp1419
g11
I00
sg18
I01
sg19
I00
sbsS'temperatureBase'
p1420
g0
(g137
g2
Ntp1421
Rp1422
(dp1423
g11
I00
sg18
I01
sg31
I20
sg19
I00
sbsS'depVsTemp'
p1424
g0
(g137
g2
Ntp1425
Rp1426
(dp1427
g11
I00
sg18
I01
sg31
F0.0631
sg19
I00
sbsS'intlumiOffset'
p1428
g0
(g137
g2
Ntp1429
Rp1430
(dp1431
g11
I00
sg18
I01
sg31
I75
sg19
I00
sbsg69
(lp1432
g1411
ag1415
ag1420
ag1424
ag1428
aS'intlumiToNeutrons'
p1433
asg1433
g0
(g137
g2
Ntp1434
Rp1435
(dp1436
g11
I00
sg18
I01
sg31
F29200000.0
sg19
I00
sbsbsS'doRadiationDamage'
p1437
g0
(g27
g2
Ntp1438
Rp1439
(dp1440
g11
I00
sg18
I01
sg31
I01
sg19
I00
sbsg69
(lp1441
g1376
ag1380
ag1384
ag1388
aS'photoelectronsToAnalog'
p1442
ag1397
ag1402
ag1407
ag1437
ag1392
aS'pedestal'
p1443
aS'mcShape'
p1444
aS'gainWidth'
p1445
aS'gain'
p1446
asg1442
g0
(g137
g2
Ntp1447
Rp1448
(dp1449
g11
I00
sg18
I01
sg31
F40.0
sg19
I00
sbsg1443
g0
(g137
g2
Ntp1450
Rp1451
(dp1452
g11
I00
sg18
I01
sg31
F17.3
sg19
I00
sbsg1444
g0
(g267
g2
Ntp1453
Rp1454
(dp1455
g11
I00
sg18
I01
sg31
I206
sg19
I00
sbsg1445
g0
(g1067
g106
(lp1456
I0
atp1457
Rp1458
(dp1459
g11
I00
sg18
I01
sg19
I00
sbsg1446
g0
(g1067
g106
(lp1460
F0.0006252
atp1461
Rp1462
(dp1463
g11
I00
sg18
I01
sg19
I00
sbsbsg69
(lp1464
g521
ag1359
ag1363
ag1367
ag1062
ag1372
aS'useIeta18depth1'
p1465
aS'killHE'
p1466
aS'useHBUpgrade'
p1467
aS'hbUpgrade'
p1468
aS'testHEPlan1'
p1469
aS'iLumi'
p1470
aS'testHFQIE10'
p1471
aS'HBmeanenergies'
p1472
ag1355
aS'GainWidthsForTrigPrims'
p1473
aS'HBreCalibCutoff'
p1474
aS'HFRecalibration'
p1475
aS'ho'
p1476
aS'hb'
p1477
aS'hf'
p1478
aS'he'
p1479
aS'HERecalibration'
p1480
aS'useHFUpgrade'
p1481
aS'HEreCalibCutoff'
p1482
aS'SiPMCharacteristics'
p1483
aS'useHOUpgrade'
p1484
aS'hfUpgrade'
p1485
asg93
S'/cvmfs/cms.cern.ch/slc7_amd64_gcc700/cms/cmssw/CMSSW_10_2_3/python/CalibCalorimetry/HcalPlugins/Hcal_Conditions_forGlobalTag_cff.py'
p1486
sg1465
g0
(g27
g2
Ntp1487
Rp1488
(dp1489
g11
I00
sg18
I01
sg31
I01
sg19
I00
sbsg1466
g0
(g27
g2
Ntp1490
Rp1491
(dp1492
g11
I00
sg18
I01
sg31
I00
sg19
I00
sbsg1467
g0
(g27
g2
Ntp1493
Rp1494
(dp1495
g11
I00
sg18
I01
sg31
I00
sg19
I00
sbsg1468
g0
(g394
g2
Ntp1496
Rp1497
(dp1498
g11
I00
sg18
I01
sg1376
g0
(g267
g2
Ntp1499
Rp1500
(dp1501
g11
I00
sg18
I01
sg31
I2
sg19
I00
sbsg19
I00
sg1380
g0
(g137
g2
Ntp1502
Rp1503
(dp1504
g11
I00
sg18
I01
sg31
F1.5
sg19
I00
sbsg1384
g0
(g267
g2
Ntp1505
Rp1506
(dp1507
g11
I00
sg18
I01
sg31
I206
sg19
I00
sbsg1388
g0
(g267
g2
Ntp1508
Rp1509
(dp1510
g11
I00
sg18
I01
sg31
I16
sg19
I00
sbsg1392
g0
(g1067
g106
(lp1511
F0.01
aF0.015
atp1512
Rp1513
(dp1514
g11
I00
sg18
I01
sg19
I00
sbsg1397
g0
(g1067
g106
(lp1515
F0.0
aF0.0
aF0.0
aF0.0
atp1516
Rp1517
(dp1518
g11
I00
sg18
I01
sg19
I00
sbsg1402
g0
(g1067
g106
(lp1519
F0.05376
aF0.05376
aF0.05376
aF0.05376
atp1520
Rp1521
(dp1522
g11
I00
sg18
I01
sg19
I00
sbsg1407
g0
(g394
g2
Ntp1523
Rp1524
(dp1525
g11
I00
sg18
I01
sg1411
g0
(g137
g2
Ntp1526
Rp1527
(dp1528
g11
I00
sg18
I01
sg31
I-5
sg19
I00
sbsg19
I00
sg1415
g0
(g1067
g106
(lp1529
F5.543e-10
aF8.012e-10
atp1530
Rp1531
(dp1532
g11
I00
sg18
I01
sg19
I00
sbsg1420
g0
(g137
g2
Ntp1533
Rp1534
(dp1535
g11
I00
sg18
I01
sg31
I20
sg19
I00
sbsg1424
g0
(g137
g2
Ntp1536
Rp1537
(dp1538
g11
I00
sg18
I01
sg31
F0.0631
sg19
I00
sbsg1428
g0
(g137
g2
Ntp1539
Rp1540
(dp1541
g11
I00
sg18
I01
sg31
I150
sg19
I00
sbsg69
(lp1542
g1411
ag1415
ag1420
ag1424
ag1428
ag1433
asg1433
g0
(g137
g2
Ntp1543
Rp1544
(dp1545
g11
I00
sg18
I01
sg31
F367000000.0
sg19
I00
sbsbsg1437
g0
(g27
g2
Ntp1546
Rp1547
(dp1548
g11
I00
sg18
I01
sg31
I01
sg19
I00
sbsg69
(lp1549
g1376
ag1380
ag1384
ag1388
ag1442
ag1397
ag1402
ag1407
ag1437
ag1392
ag1443
ag1444
ag1445
ag1446
asg1442
g0
(g137
g2
Ntp1550
Rp1551
(dp1552
g11
I00
sg18
I01
sg31
F40.0
sg19
I00
sbsg1443
g0
(g137
g2
Ntp1553
Rp1554
(dp1555
g11
I00
sg18
I01
sg31
F17.3
sg19
I00
sbsg1444
g0
(g267
g2
Ntp1556
Rp1557
(dp1558
g11
I00
sg18
I01
sg31
I206
sg19
I00
sbsg1445
g0
(g1067
g106
(lp1559
I0
atp1560
Rp1561
(dp1562
g11
I00
sg18
I01
sg19
I00
sbsg1446
g0
(g1067
g106
(lp1563
F0.0006252
atp1564
Rp1565
(dp1566
g11
I00
sg18
I01
sg19
I00
sbsbsg156
g1195
sg1469
g0
(g27
g2
Ntp1567
Rp1568
(dp1569
g11
I00
sg18
I01
sg31
I00
sg19
I00
sbsg1470
g0
(g137
g2
Ntp1570
Rp1571
(dp1572
g11
I00
sg18
I01
sg31
F-1.0
sg19
I00
sbsg1471
g0
(g27
g2
Ntp1573
Rp1574
(dp1575
g11
I00
sg18
I01
sg31
I00
sg19
I00
sbsg1472
g0
(g1203
g2
Ntp1576
Rp1577
(dp1578
g11
I00
sg18
I01
sg31
S'CalibCalorimetry/HcalPlugins/data/meanenergiesHB.txt'
p1579
sg19
I00
sbsg521
g0
(g105
g106
(lp1580
S'GainWidths'
p1581
atp1582
Rp1583
(dp1584
g11
I00
sg18
I00
sg19
I00
sg132
I1
sbsg1473
g0
(g27
g2
Ntp1585
Rp1586
(dp1587
g11
I00
sg18
I01
sg31
I00
sg19
I00
sbsg1474
g0
(g137
g2
Ntp1588
Rp1589
(dp1590
g11
I00
sg18
I01
sg31
F20.0
sg19
I00
sbsg1475
g0
(g27
g2
Ntp1591
Rp1592
(dp1593
g11
I00
sg18
I01
sg31
I00
sg19
I00
sbsg1476
g0
(g394
g2
Ntp1594
Rp1595
(dp1596
g11
I00
sg18
I01
sg1376
g0
(g267
g2
Ntp1597
Rp1598
(dp1599
g11
I00
sg18
I01
sg31
I0
sg19
I00
sbsg19
I00
sg1380
g0
(g137
g2
Ntp1600
Rp1601
(dp1602
g11
I00
sg18
I01
sg31
F0.6285
sg19
I00
sbsg1384
g0
(g267
g2
Ntp1603
Rp1604
(dp1605
g11
I00
sg18
I01
sg31
I201
sg19
I00
sbsg1388
g0
(g267
g2
Ntp1606
Rp1607
(dp1608
g11
I00
sg18
I01
sg31
I24
sg19
I00
sbsg1392
g0
(g1067
g106
(lp1609
F0.0
atp1610
Rp1611
(dp1612
g11
I00
sg18
I01
sg19
I00
sbsg1397
g0
(g1067
g106
(lp1613
F-0.44
aF1.4
aF7.1
aF38.5
atp1614
Rp1615
(dp1616
g11
I00
sg18
I01
sg19
I00
sbsg1402
g0
(g1067
g106
(lp1617
F0.907
aF0.915
aF0.92
aF0.921
atp1618
Rp1619
(dp1620
g11
I00
sg18
I01
sg19
I00
sbsg1446
g0
(g1067
g106
(lp1621
F0.006
aF0.0087
atp1622
Rp1623
(dp1624
g11
I00
sg18
I01
sg19
I00
sbsg1437
g0
(g27
g2
Ntp1625
Rp1626
(dp1627
g11
I00
sg18
I01
sg31
I00
sg19
I00
sbsg69
(lp1628
g1376
ag1380
ag1384
ag1388
ag1442
ag1397
ag1402
ag1446
ag1437
ag1392
ag1443
ag1444
ag1445
asg1442
g0
(g137
g2
Ntp1629
Rp1630
(dp1631
g11
I00
sg18
I01
sg31
F4.0
sg19
I00
sbsg1443
g0
(g137
g2
Ntp1632
Rp1633
(dp1634
g11
I00
sg18
I01
sg31
F12.06
sg19
I00
sbsg1444
g0
(g267
g2
Ntp1635
Rp1636
(dp1637
g11
I00
sg18
I01
sg31
I201
sg19
I00
sbsg1445
g0
(g1067
g106
(lp1638
F0.0
aF0.0
atp1639
Rp1640
(dp1641
g11
I00
sg18
I01
sg19
I00
sbsbsg1477
g0
(g394
g2
Ntp1642
Rp1643
(dp1644
g11
I00
sg18
I01
sg1376
g0
(g267
g2
Ntp1645
Rp1646
(dp1647
g11
I00
sg18
I01
sg31
I0
sg19
I00
sbsg19
I00
sg1380
g0
(g137
g2
Ntp1648
Rp1649
(dp1650
g11
I00
sg18
I01
sg31
F0.809
sg19
I00
sbsg1384
g0
(g267
g2
Ntp1651
Rp1652
(dp1653
g11
I00
sg18
I01
sg31
I105
sg19
I00
sbsg1388
g0
(g267
g2
Ntp1654
Rp1655
(dp1656
g11
I00
sg18
I01
sg31
I8
sg19
I00
sbsg1392
g0
(g1067
g106
(lp1657
F0.0
atp1658
Rp1659
(dp1660
g11
I00
sg18
I01
sg19
I00
sbsg1397
g0
(g1067
g106
(lp1661
F-0.49
aF1.8
aF7.2
aF37.9
atp1662
Rp1663
(dp1664
g11
I00
sg18
I01
sg19
I00
sbsg1402
g0
(g1067
g106
(lp1665
F0.912
aF0.917
aF0.922
aF0.923
atp1666
Rp1667
(dp1668
g11
I00
sg18
I01
sg19
I00
sbsg1446
g0
(g1067
g106
(lp1669
F0.19
atp1670
Rp1671
(dp1672
g11
I00
sg18
I01
sg19
I00
sbsg1437
g0
(g27
g2
Ntp1673
Rp1674
(dp1675
g11
I00
sg18
I01
sg31
I00
sg19
I00
sbsg69
(lp1676
g1376
ag1380
ag1384
ag1388
ag1442
ag1397
ag1402
ag1446
ag1437
ag1392
ag1443
ag1444
ag1445
asg1442
g0
(g137
g2
Ntp1677
Rp1678
(dp1679
g11
I00
sg18
I01
sg31
F0.3305
sg19
I00
sbsg1443
g0
(g137
g2
Ntp1680
Rp1681
(dp1682
g11
I00
sg18
I01
sg31
F3.285
sg19
I00
sbsg1444
g0
(g267
g2
Ntp1683
Rp1684
(dp1685
g11
I00
sg18
I01
sg31
I125
sg19
I00
sbsg1445
g0
(g1067
g106
(lp1686
F0.0
atp1687
Rp1688
(dp1689
g11
I00
sg18
I01
sg19
I00
sbsbsg1478
g0
(g394
g2
Ntp1690
Rp1691
(dp1692
g11
I00
sg18
I01
sg1376
g0
(g267
g2
Ntp1693
Rp1694
(dp1695
g11
I00
sg18
I01
sg31
I0
sg19
I00
sbsg19
I00
sg1380
g0
(g137
g2
Ntp1696
Rp1697
(dp1698
g11
I00
sg18
I01
sg31
F2.516
sg19
I00
sbsg1384
g0
(g267
g2
Ntp1699
Rp1700
(dp1701
g11
I00
sg18
I01
sg31
I301
sg19
I00
sbsg1388
g0
(g267
g2
Ntp1702
Rp1703
(dp1704
g11
I00
sg18
I01
sg31
I-9999
sg19
I00
sbsg1392
g0
(g1067
g106
(lp1705
F0.0
atp1706
Rp1707
(dp1708
g11
I00
sg18
I01
sg19
I00
sbsg1397
g0
(g1067
g106
(lp1709
F-0.87
aF1.4
aF7.8
aF-29.6
atp1710
Rp1711
(dp1712
g11
I00
sg18
I01
sg19
I00
sbsg1402
g0
(g1067
g106
(lp1713
F0.359
aF0.358
aF0.36
aF0.367
atp1714
Rp1715
(dp1716
g11
I00
sg18
I01
sg19
I00
sbsg1446
g0
(g1067
g106
(lp1717
F0.14
aF0.135
atp1718
Rp1719
(dp1720
g11
I00
sg18
I01
sg19
I00
sbsg1437
g0
(g27
g2
Ntp1721
Rp1722
(dp1723
g11
I00
sg18
I01
sg31
I00
sg19
I00
sbsg69
(lp1724
g1376
ag1380
ag1384
ag1388
ag1442
ag1397
ag1402
ag1446
ag1437
ag1392
ag1443
ag1444
ag1445
asg1442
g0
(g137
g2
Ntp1725
Rp1726
(dp1727
g11
I00
sg18
I01
sg31
F0.0
sg19
I00
sbsg1443
g0
(g137
g2
Ntp1728
Rp1729
(dp1730
g11
I00
sg18
I01
sg31
F9.354
sg19
I00
sbsg1444
g0
(g267
g2
Ntp1731
Rp1732
(dp1733
g11
I00
sg18
I01
sg31
I301
sg19
I00
sbsg1445
g0
(g1067
g106
(lp1734
F0.0
aF0.0
atp1735
Rp1736
(dp1737
g11
I00
sg18
I01
sg19
I00
sbsbsg1479
g0
(g394
g2
Ntp1738
Rp1739
(dp1740
g11
I00
sg18
I01
sg1376
g0
(g267
g2
Ntp1741
Rp1742
(dp1743
g11
I00
sg18
I01
sg31
I0
sg19
I00
sbsg19
I00
sg1380
g0
(g137
g2
Ntp1744
Rp1745
(dp1746
g11
I00
sg18
I01
sg31
F0.9698
sg19
I00
sbsg1384
g0
(g267
g2
Ntp1747
Rp1748
(dp1749
g11
I00
sg18
I01
sg31
I105
sg19
I00
sbsg1388
g0
(g267
g2
Ntp1750
Rp1751
(dp1752
g11
I00
sg18
I01
sg31
I9
sg19
I00
sbsg1392
g0
(g1067
g106
(lp1753
F0.0
atp1754
Rp1755
(dp1756
g11
I00
sg18
I01
sg19
I00
sbsg1397
g0
(g1067
g106
(lp1757
F-0.38
aF2.0
aF7.6
aF39.6
atp1758
Rp1759
(dp1760
g11
I00
sg18
I01
sg19
I00
sbsg1402
g0
(g1067
g106
(lp1761
F0.912
aF0.916
aF0.92
aF0.922
atp1762
Rp1763
(dp1764
g11
I00
sg18
I01
sg19
I00
sbsg1446
g0
(g1067
g106
(lp1765
F0.23
atp1766
Rp1767
(dp1768
g11
I00
sg18
I01
sg19
I00
sbsg1437
g0
(g27
g2
Ntp1769
Rp1770
(dp1771
g11
I00
sg18
I01
sg31
I00
sg19
I00
sbsg69
(lp1772
g1376
ag1380
ag1384
ag1388
ag1442
ag1397
ag1402
ag1446
ag1437
ag1392
ag1443
ag1444
ag1445
asg1442
g0
(g137
g2
Ntp1773
Rp1774
(dp1775
g11
I00
sg18
I01
sg31
F0.3305
sg19
I00
sbsg1443
g0
(g137
g2
Ntp1776
Rp1777
(dp1778
g11
I00
sg18
I01
sg31
F3.163
sg19
I00
sbsg1444
g0
(g267
g2
Ntp1779
Rp1780
(dp1781
g11
I00
sg18
I01
sg31
I125
sg19
I00
sbsg1445
g0
(g1067
g106
(lp1782
I0
atp1783
Rp1784
(dp1785
g11
I00
sg18
I01
sg19
I00
sbsbsg19
I00
sg1480
g0
(g27
g2
Ntp1786
Rp1787
(dp1788
g11
I00
sg18
I01
sg31
I00
sg19
I00
sbsg1481
g0
(g27
g2
Ntp1789
Rp1790
(dp1791
g11
I00
sg18
I01
sg31
I00
sg19
I00
sbsg1482
g0
(g137
g2
Ntp1792
Rp1793
(dp1794
g11
I00
sg18
I01
sg31
F20.0
sg19
I00
sbsg1483
g0
(g479
g106
(lp1795
g0
(g394
g2
Ntp1796
Rp1797
(dp1798
g11
I00
sg18
I01
sg19
I00
sS'crosstalk'
p1799
g0
(g137
g2
Ntp1800
Rp1801
(dp1802
g11
I00
sg18
I01
sg31
F0.0
sg19
I00
sbsS'nonlin1'
p1803
g0
(g137
g2
Ntp1804
Rp1805
(dp1806
g11
I00
sg18
I01
sg31
F1.0
sg19
I00
sbsS'nonlin3'
p1807
g0
(g137
g2
Ntp1808
Rp1809
(dp1810
g11
I00
sg18
I01
sg31
F0.0
sg19
I00
sbsS'nonlin2'
p1811
g0
(g137
g2
Ntp1812
Rp1813
(dp1814
g11
I00
sg18
I01
sg31
F0.0
sg19
I00
sbsg69
(lp1815
g1803
ag1807
ag1811
aS'pixels'
p1816
ag1799
asg1816
g0
(g267
g2
Ntp1817
Rp1818
(dp1819
g11
I00
sg18
I01
sg31
I36000
sg19
I00
sbsbag0
(g394
g2
Ntp1820
Rp1821
(dp1822
g11
I00
sg18
I01
sg19
I00
sg1799
g0
(g137
g2
Ntp1823
Rp1824
(dp1825
g11
I00
sg18
I01
sg31
F0.0
sg19
I00
sbsg1803
g0
(g137
g2
Ntp1826
Rp1827
(dp1828
g11
I00
sg18
I01
sg31
F1.0
sg19
I00
sbsg1807
g0
(g137
g2
Ntp1829
Rp1830
(dp1831
g11
I00
sg18
I01
sg31
F0.0
sg19
I00
sbsg1811
g0
(g137
g2
Ntp1832
Rp1833
(dp1834
g11
I00
sg18
I01
sg31
F0.0
sg19
I00
sbsg69
(lp1835
g1803
ag1807
ag1811
ag1816
ag1799
asg1816
g0
(g267
g2
Ntp1836
Rp1837
(dp1838
g11
I00
sg18
I01
sg31
I2500
sg19
I00
sbsbag0
(g394
g2
Ntp1839
Rp1840
(dp1841
g11
I00
sg18
I01
sg19
I00
sg1799
g0
(g137
g2
Ntp1842
Rp1843
(dp1844
g11
I00
sg18
I01
sg31
F0.17
sg19
I00
sbsg1803
g0
(g137
g2
Ntp1845
Rp1846
(dp1847
g11
I00
sg18
I01
sg31
F1.00985
sg19
I00
sbsg1807
g0
(g137
g2
Ntp1848
Rp1849
(dp1850
g11
I00
sg18
I01
sg31
F2.86282e-10
sg19
I00
sbsg1811
g0
(g137
g2
Ntp1851
Rp1852
(dp1853
g11
I00
sg18
I01
sg31
F7.84089e-06
sg19
I00
sbsg69
(lp1854
g1803
ag1807
ag1811
ag1816
ag1799
asg1816
g0
(g267
g2
Ntp1855
Rp1856
(dp1857
g11
I00
sg18
I01
sg31
I27370
sg19
I00
sbsbag0
(g394
g2
Ntp1858
Rp1859
(dp1860
g11
I00
sg18
I01
sg19
I00
sg1799
g0
(g137
g2
Ntp1861
Rp1862
(dp1863
g11
I00
sg18
I01
sg31
F0.196
sg19
I00
sbsg1803
g0
(g137
g2
Ntp1864
Rp1865
(dp1866
g11
I00
sg18
I01
sg31
F1.00546
sg19
I00
sbsg1807
g0
(g137
g2
Ntp1867
Rp1868
(dp1869
g11
I00
sg18
I01
sg31
F1.27011e-10
sg19
I00
sbsg1811
g0
(g137
g2
Ntp1870
Rp1871
(dp1872
g11
I00
sg18
I01
sg31
F6.40239e-06
sg19
I00
sbsg69
(lp1873
g1803
ag1807
ag1811
ag1816
ag1799
asg1816
g0
(g267
g2
Ntp1874
Rp1875
(dp1876
g11
I00
sg18
I01
sg31
I38018
sg19
I00
sbsbag0
(g394
g2
Ntp1877
Rp1878
(dp1879
g11
I00
sg18
I01
sg19
I00
sg1799
g0
(g137
g2
Ntp1880
Rp1881
(dp1882
g11
I00
sg18
I01
sg31
F0.17
sg19
I00
sbsg1803
g0
(g137
g2
Ntp1883
Rp1884
(dp1885
g11
I00
sg18
I01
sg31
F1.00985
sg19
I00
sbsg1807
g0
(g137
g2
Ntp1886
Rp1887
(dp1888
g11
I00
sg18
I01
sg31
F2.86282e-10
sg19
I00
sbsg1811
g0
(g137
g2
Ntp1889
Rp1890
(dp1891
g11
I00
sg18
I01
sg31
F7.84089e-06
sg19
I00
sbsg69
(lp1892
g1803
ag1807
ag1811
ag1816
ag1799
asg1816
g0
(g267
g2
Ntp1893
Rp1894
(dp1895
g11
I00
sg18
I01
sg31
I27370
sg19
I00
sbsbag0
(g394
g2
Ntp1896
Rp1897
(dp1898
g11
I00
sg18
I01
sg19
I00
sg1799
g0
(g137
g2
Ntp1899
Rp1900
(dp1901
g11
I00
sg18
I01
sg31
F0.196
sg19
I00
sbsg1803
g0
(g137
g2
Ntp1902
Rp1903
(dp1904
g11
I00
sg18
I01
sg31
F1.00546
sg19
I00
sbsg1807
g0
(g137
g2
Ntp1905
Rp1906
(dp1907
g11
I00
sg18
I01
sg31
F1.27011e-10
sg19
I00
sbsg1811
g0
(g137
g2
Ntp1908
Rp1909
(dp1910
g11
I00
sg18
I01
sg31
F6.40239e-06
sg19
I00
sbsg69
(lp1911
g1803
ag1807
ag1811
ag1816
ag1799
asg1816
g0
(g267
g2
Ntp1912
Rp1913
(dp1914
g11
I00
sg18
I01
sg31
I38018
sg19
I00
sbsbag0
(g394
g2
Ntp1915
Rp1916
(dp1917
g11
I00
sg18
I01
sg19
I00
sg1799
g0
(g137
g2
Ntp1918
Rp1919
(dp1920
g11
I00
sg18
I01
sg31
F0.0
sg19
I00
sbsg1803
g0
(g137
g2
Ntp1921
Rp1922
(dp1923
g11
I00
sg18
I01
sg31
F1.0
sg19
I00
sbsg1807
g0
(g137
g2
Ntp1924
Rp1925
(dp1926
g11
I00
sg18
I01
sg31
F0.0
sg19
I00
sbsg1811
g0
(g137
g2
Ntp1927
Rp1928
(dp1929
g11
I00
sg18
I01
sg31
F0.0
sg19
I00
sbsg69
(lp1930
g1803
ag1807
ag1811
ag1816
ag1799
asg1816
g0
(g267
g2
Ntp1931
Rp1932
(dp1933
g11
I00
sg18
I01
sg31
I0
sg19
I00
sbsbatp1934
Rp1935
(dp1936
g11
I00
sg18
I01
sg19
I00
sg132
I1
sbsg148
g1194
sg1484
g0
(g27
g2
Ntp1937
Rp1938
(dp1939
g11
I00
sg18
I01
sg31
I01
sg19
I00
sbsg1485
g0
(g394
g2
Ntp1940
Rp1941
(dp1942
g11
I00
sg18
I01
sg1376
g0
(g267
g2
Ntp1943
Rp1944
(dp1945
g11
I00
sg18
I01
sg31
I1
sg19
I00
sbsg19
I00
sg1380
g0
(g137
g2
Ntp1946
Rp1947
(dp1948
g11
I00
sg18
I01
sg31
F3.33
sg19
I00
sbsg1384
g0
(g267
g2
Ntp1949
Rp1950
(dp1951
g11
I00
sg18
I01
sg31
I301
sg19
I00
sbsg1388
g0
(g267
g2
Ntp1952
Rp1953
(dp1954
g11
I00
sg18
I01
sg31
I-9999
sg19
I00
sbsg1392
g0
(g1067
g106
(lp1955
F0.0
atp1956
Rp1957
(dp1958
g11
I00
sg18
I01
sg19
I00
sbsg1397
g0
(g1067
g106
(lp1959
F0.0697
aF-0.7405
aF12.38
aF-671.9
atp1960
Rp1961
(dp1962
g11
I00
sg18
I01
sg19
I00
sbsg1402
g0
(g1067
g106
(lp1963
F0.297
aF0.298
aF0.298
aF0.313
atp1964
Rp1965
(dp1966
g11
I00
sg18
I01
sg19
I00
sbsg1446
g0
(g1067
g106
(lp1967
F0.14
aF0.135
atp1968
Rp1969
(dp1970
g11
I00
sg18
I01
sg19
I00
sbsg1437
g0
(g27
g2
Ntp1971
Rp1972
(dp1973
g11
I00
sg18
I01
sg31
I00
sg19
I00
sbsg69
(lp1974
g1376
ag1380
ag1384
ag1388
ag1442
ag1397
ag1402
ag1446
ag1437
ag1392
ag1443
ag1444
ag1445
asg1442
g0
(g137
g2
Ntp1975
Rp1976
(dp1977
g11
I00
sg18
I01
sg31
F0.0
sg19
I00
sbsg1443
g0
(g137
g2
Ntp1978
Rp1979
(dp1980
g11
I00
sg18
I01
sg31
F13.33
sg19
I00
sbsg1444
g0
(g267
g2
Ntp1981
Rp1982
(dp1983
g11
I00
sg18
I01
sg31
I301
sg19
I00
sbsg1445
g0
(g1067
g106
(lp1984
F0.0
aF0.0
atp1985
Rp1986
(dp1987
g11
I00
sg18
I01
sg19
I00
sbsbsbsg509
g512
sg885
g887
ssg348
g335
sg466
g468
sg1341
g1343
sS'CSCGeometryESModule'
p1988
g0
(g182
g2
Ntp1989
Rp1990
(dp1991
g69
(lp1992
g382
aS'useDDD'
p1993
aS'debugV'
p1994
aS'useGangedStripsInME1a'
p1995
ag1094
aS'useOnlyWiresInME1a'
p1996
aS'useRealWireGeometry'
p1997
aS'useCentreTIOffsets'
p1998
ag413
asg11
I00
sg382
g0
(g222
g2
Ntp1999
Rp2000
(dp2001
g11
I00
sg18
I01
sg31
g25
sg19
I00
sbsg19
I00
sg1994
g0
(g27
g2
Ntp2002
Rp2003
(dp2004
g11
I00
sg18
I00
sg31
I00
sg19
I00
sbsg93
g188
sg1995
g0
(g27
g2
Ntp2005
Rp2006
(dp2007
g11
I00
sg18
I01
sg31
I01
sg19
I00
sbsg1094
g0
(g222
g2
Ntp2008
Rp2009
(dp2010
g11
I00
sg18
I01
sg31
g25
sg19
I00
sbsg1996
g0
(g27
g2
Ntp2011
Rp2012
(dp2013
g11
I00
sg18
I01
sg31
I00
sg19
I00
sbsg1993
g0
(g27
g2
Ntp2014
Rp2015
(dp2016
g11
I00
sg18
I01
sg31
I00
sg19
I00
sbsg12
I53
sg1998
g0
(g27
g2
Ntp2017
Rp2018
(dp2019
g11
I00
sg18
I01
sg31
I00
sg19
I00
sbsg148
g1988
sg1997
g0
(g27
g2
Ntp2020
Rp2021
(dp2022
g11
I00
sg18
I01
sg31
I01
sg19
I00
sbsg413
g0
(g27
g2
Ntp2023
Rp2024
(dp2025
g11
I00
sg18
I01
sg31
I01
sg19
I00
sbsg156
g1988
sbsS'EcalBarrelGeometryFromDBEP'
p2026
g0
(g182
g2
Ntp2027
Rp2028
(dp2029
g69
(lp2030
g413
asg11
I00
sg19
I01
sg12
I53
sg93
g188
sg148
g2026
sg413
g0
(g27
g2
Ntp2031
Rp2032
(dp2033
g11
I00
sg18
I01
sg31
I01
sg19
I01
sbsg156
g2026
sbsS'trackerNumberingGeometryDB'
p2034
g0
(g182
g2
Ntp2035
Rp2036
(dp2037
g69
(lp2038
g382
ag1093
asg11
I00
sg382
g0
(g222
g2
Ntp2039
Rp2040
(dp2041
g11
I00
sg18
I01
sg31
g25
sg19
I00
sbsg19
I00
sg12
I53
sg93
g188
sg148
g2034
sg1093
g0
(g27
g2
Ntp2042
Rp2043
(dp2044
g11
I00
sg18
I01
sg31
I00
sg19
I00
sbsg156
S'TrackerGeometricDetESModule'
p2045
sbsS'_Process__name'
p2046
S'LL'
p2047
sg1194
g1353
sg174
g236
sS'_cloneToObjectDict'
p2048
(dp2049
I139935283024784
g1090
sI139935283053200
g0
(g182
g2
Ntp2050
Rp2051
(dp2052
g69
(lp2053
sg11
I00
sg19
I00
sg12
I53
sg93
g188
sg148
S'CaloTowerTopologyEP'
p2054
sg156
g2054
sbsI139935282983888
g475
sI139935283467600
g1144
sI139935283024976
g0
(g182
g2
Ntp2055
Rp2056
(dp2057
g69
(lp2058
sg11
I00
sg19
I00
sg12
I53
sg93
g188
sg148
S'GlobalTrackingGeometryESProducer'
p2059
sg156
g2059
sbsI139935283426448
g1190
sI139935282986384
g0
(g182
g2
Ntp2060
Rp2061
(dp2062
g69
(lp2063
g1993
aS'compatibiltyWith11'
p2064
asg11
I00
sg19
I00
sg12
I53
sg93
g188
sg1993
g0
(g27
g2
Ntp2065
Rp2066
(dp2067
g11
I00
sg18
I00
sg31
I00
sg19
I00
sbsg2064
g0
(g27
g2
Ntp2068
Rp2069
(dp2070
g11
I00
sg18
I00
sg31
I01
sg19
I00
sbsg148
S'RPCGeometryESModule'
p2071
sg156
g2071
sbsI139935283107088
g0
(g182
g2
Ntp2072
Rp2073
(dp2074
g69
(lp2075
g382
ag1093
ag413
ag1094
asg11
I00
sg382
g0
(g222
g2
Ntp2076
Rp2077
(dp2078
g11
I00
sg18
I01
sg31
g1243
sg19
I01
sbsg19
I01
sg1094
g0
(g222
g2
Ntp2079
Rp2080
(dp2081
g11
I00
sg18
I01
sg31
g1247
sg19
I01
sbsg93
S'/cvmfs/cms.cern.ch/slc7_amd64_gcc700/cms/cmssw/CMSSW_10_2_3/python/Geometry/DTGeometryBuilder/idealForDigiDtGeometryDB_cff.py'
p2082
sg12
I8
sg148
S'idealForDigiDTGeometry'
p2083
sg1093
g0
(g27
g2
Ntp2084
Rp2085
(dp2086
g11
I00
sg18
I01
sg31
I00
sg19
I00
sbsg413
g0
(g27
g2
Ntp2087
Rp2088
(dp2089
g11
I00
sg18
I01
sg31
I00
sg19
I01
sbsg156
g1282
sbsI139935283250064
g468
sI139935283054032
g1056
sI139935283056080
g1237
sI139935283027280
g0
(g182
g2
Ntp2090
Rp2091
(dp2092
g69
(lp2093
g413
asg11
I00
sg19
I01
sg12
I53
sg93
g188
sg148
S'HcalGeometryFromDBEP'
p2094
sg413
g0
(g27
g2
Ntp2095
Rp2096
(dp2097
g11
I00
sg18
I01
sg31
I01
sg19
I01
sbsg156
g2094
sbsI139935283467920
g0
(g182
g2
Ntp2098
Rp2099
(dp2100
g69
(lp2101
S'ComponentType'
p2102
ag1327
aS'parameters'
p2103
asg11
I00
sg19
I00
sg2103
g0
(g394
g2
Ntp2104
Rp2105
(dp2106
g11
I00
sg18
I01
sg19
I00
sg69
(lp2107
sbsg12
I53
sg1327
g0
(g222
g2
Ntp2108
Rp2109
(dp2110
g11
I00
sg18
I01
sg31
S'stripCPE'
p2111
sg19
I00
sbsg2102
g0
(g222
g2
Ntp2112
Rp2113
(dp2114
g11
I00
sg18
I01
sg31
S'SimpleStripCPE'
p2115
sg19
I00
sbsg93
g188
sg148
S'stripCPEESProducer'
p2116
sg156
S'StripCPEESProducer'
p2117
sbsI139935283468048
g0
(g182
g2
Ntp2118
Rp2119
(dp2120
g69
(lp2121
g2102
ag1327
ag2103
asg11
I00
sg19
I01
sg2103
g0
(g394
g2
Ntp2122
Rp2123
(dp2124
g11
I00
sg18
I01
sS'maxChgOneMIP'
p2125
g0
(g137
g2
Ntp2126
Rp2127
(dp2128
g11
I00
sg18
I01
sg31
F6000.0
sg19
I00
sbsS'mLC_P2'
p2129
g0
(g137
g2
Ntp2130
Rp2131
(dp2132
g11
I00
sg18
I01
sg31
F0.3
sg19
I00
sbsS'mLC_P1'
p2133
g0
(g137
g2
Ntp2134
Rp2135
(dp2136
g11
I00
sg18
I01
sg31
F0.618
sg19
I00
sbsS'mLC_P0'
p2137
g0
(g137
g2
Ntp2138
Rp2139
(dp2140
g11
I00
sg18
I01
sg31
F-0.326
sg19
I00
sbsS'useLegacyError'
p2141
g0
(g27
g2
Ntp2142
Rp2143
(dp2144
g11
I00
sg18
I01
sg31
I00
sg19
I00
sbsS'mTIB_P1'
p2145
g0
(g137
g2
Ntp2146
Rp2147
(dp2148
g11
I00
sg18
I01
sg31
F0.202
sg19
I00
sbsS'mTEC_P1'
p2149
g0
(g137
g2
Ntp2150
Rp2151
(dp2152
g11
I00
sg18
I01
sg31
F0.471
sg19
I00
sbsS'mTEC_P0'
p2153
g0
(g137
g2
Ntp2154
Rp2155
(dp2156
g11
I00
sg18
I01
sg31
F-1.885
sg19
I00
sbsS'mTOB_P0'
p2157
g0
(g137
g2
Ntp2158
Rp2159
(dp2160
g11
I00
sg18
I01
sg31
F-1.026
sg19
I00
sbsS'mTOB_P1'
p2161
g0
(g137
g2
Ntp2162
Rp2163
(dp2164
g11
I00
sg18
I01
sg31
F0.253
sg19
I00
sbsS'mTIB_P0'
p2165
g0
(g137
g2
Ntp2166
Rp2167
(dp2168
g11
I00
sg18
I01
sg31
F-0.742
sg19
I00
sbsg69
(lp2169
g2125
ag2129
ag2133
ag2137
ag2141
ag2149
ag2153
ag2157
ag2161
ag2165
ag2145
aS'mTID_P0'
p2170
aS'mTID_P1'
p2171
asg2170
g0
(g137
g2
Ntp2172
Rp2173
(dp2174
g11
I00
sg18
I01
sg31
F-1.427
sg19
I00
sbsg2171
g0
(g137
g2
Ntp2175
Rp2176
(dp2177
g11
I00
sg18
I01
sg31
F0.433
sg19
I00
sbsg19
I00
sbsg12
I4
sg1327
g0
(g222
g2
Ntp2178
Rp2179
(dp2180
g11
I00
sg18
I01
sg31
S'StripCPEfromTrackAngle'
p2181
sg19
I00
sbsg2102
g0
(g222
g2
Ntp2182
Rp2183
(dp2184
g11
I00
sg18
I01
sg31
g2181
sg19
I00
sbsg93
S'/cvmfs/cms.cern.ch/slc7_amd64_gcc700/cms/cmssw/CMSSW_10_2_3/python/RecoLocalTracker/SiStripRecHitConverter/StripCPEfromTrackAngle_cfi.py'
p2185
sg148
S'StripCPEfromTrackAngleESProducer'
p2186
sg156
g2117
sbsI139935283196112
g216
sI139935283469392
g1323
sI139935283108752
g1301
sI139935283694928
g1199
sI139935283025744
g1318
sI139935283055056
g1110
sI139935283053712
g0
(g182
g2
Ntp2187
Rp2188
(dp2189
g69
(lp2190
g413
asg11
I00
sg19
I00
sg12
I53
sg93
g188
sg148
S'ZdcGeometryFromDBEP'
p2191
sg413
g0
(g27
g2
Ntp2192
Rp2193
(dp2194
g11
I00
sg18
I01
sg31
I00
sg19
I00
sbsg156
g2191
sbsI139935283025168
g0
(g182
g2
Ntp2195
Rp2196
(dp2197
g69
(lp2198
g382
asg11
I00
sg382
g0
(g222
g2
Ntp2199
Rp2200
(dp2201
g11
I00
sg18
I01
sg31
g25
sg19
I00
sbsg19
I00
sg12
I53
sg93
g188
sg148
S'trackerTopology'
p2202
sg156
S'TrackerTopologyEP'
p2203
sbsI139935283427472
g0
(g182
g2
Ntp2204
Rp2205
(dp2206
g69
(lp2207
g382
asg11
I00
sg382
g0
(g222
g2
Ntp2208
Rp2209
(dp2210
g11
I00
sg18
I01
sg31
g25
sg19
I00
sbsg19
I00
sg12
I53
sg93
g188
sg148
S'CastorDbProducer'
p2211
sg156
g2211
sbsI139935283337424
g887
sI139935283026192
g184
sI139935283108176
g1266
sI139935283198416
g205
sI139935283469520
g0
(g182
g2
Ntp2212
Rp2213
(dp2214
g69
(lp2215
sg11
I00
sg19
I00
sg12
I53
sg93
g188
sg148
S'sistripconn'
p2216
sg156
S'SiStripConnectivity'
p2217
sbsI139935283054352
g1134
sI139935283026576
g615
sI139935283026704
g0
(g182
g2
Ntp2218
Rp2219
(dp2220
g69
(lp2221
g413
asg11
I00
sg19
I01
sg12
I53
sg93
g188
sg148
S'EcalPreshowerGeometryFromDBEP'
p2222
sg413
g0
(g27
g2
Ntp2223
Rp2224
(dp2225
g11
I00
sg18
I01
sg31
I01
sg19
I01
sbsg156
g2222
sbsI139935283198928
g445
sI139935283026832
g2028
sI139935283055568
g379
sI139935283025040
g0
(g182
g2
Ntp2226
Rp2227
(dp2228
g69
(lp2229
sg11
I00
sg19
I00
sg12
I53
sg93
g188
sg148
S'TrackerRecoGeometryESProducer'
p2230
sg156
g2230
sbsI139935282986064
g1990
sI139935283024336
g2036
sI139935283338384
g1064
sI139935283338448
g0
(g182
g2
Ntp2231
Rp2232
(dp2233
g69
(lp2234
S'file'
p2235
aS'dump'
p2236
asg11
I00
sg19
I00
sg2236
g0
(g105
g106
(lp2237
g25
atp2238
Rp2239
(dp2240
g11
I00
sg18
I00
sg19
I00
sg132
I1
sbsg12
I53
sg93
g188
sg2235
g0
(g222
g2
Ntp2241
Rp2242
(dp2243
g11
I00
sg18
I00
sg31
g25
sg19
I00
sbsg148
S'hcal_db_producer'
p2244
sg156
S'HcalDbProducer'
p2245
sbsI139935283198288
g288
sI139935283055888
g0
(g182
g2
Ntp2246
Rp2247
(dp2248
g69
(lp2249
g382
asg11
I00
sg382
g0
(g222
g2
Ntp2250
Rp2251
(dp2252
g11
I00
sg18
I01
sg31
g25
sg19
I00
sbsg19
I00
sg12
I53
sg93
g188
sg148
S'hcalDDDRecConstants'
p2253
sg156
S'HcalDDDRecConstantsESModule'
p2254
sbsI139935282734096
g597
sI139935283312464
g512
sI139935283027344
g0
(g182
g2
Ntp2255
Rp2256
(dp2257
g69
(lp2258
sg11
I00
sg19
I00
sg12
I53
sg93
g188
sg148
S'HcalAlignmentEP'
p2259
sg156
g2259
sbsI139935283027664
g410
sI139935283429072
g0
(g182
g2
Ntp2260
Rp2261
(dp2262
g69
(lp2263
S'printDebug'
p2264
ag382
aS'APVGain'
p2265
aS'AutomaticNormalization'
p2266
asg11
I00
sg382
g0
(g222
g2
Ntp2267
Rp2268
(dp2269
g11
I00
sg18
I01
sg31
g25
sg19
I00
sbsg19
I00
sg2266
g0
(g27
g2
Ntp2270
Rp2271
(dp2272
g11
I00
sg18
I01
sg31
I00
sg19
I00
sbsg12
I53
sg2264
g0
(g27
g2
Ntp2273
Rp2274
(dp2275
g11
I00
sg18
I00
sg31
I00
sg19
I00
sbsg93
g188
sg2265
g0
(g479
g106
(lp2276
g0
(g394
g2
Ntp2277
Rp2278
(dp2279
g11
I00
sg18
I01
sg19
I00
sS'Label'
p2280
g0
(g222
g2
Ntp2281
Rp2282
(dp2283
g11
I00
sg18
I00
sg31
g25
sg19
I00
sbsS'Record'
p2284
g0
(g222
g2
Ntp2285
Rp2286
(dp2287
g11
I00
sg18
I01
sg31
S'SiStripApvGainRcd'
p2288
sg19
I00
sbsS'NormalizationFactor'
p2289
g0
(g137
g2
Ntp2290
Rp2291
(dp2292
g11
I00
sg18
I00
sg31
F1.0
sg19
I00
sbsg69
(lp2293
g2284
ag2289
ag2280
asbag0
(g394
g2
Ntp2294
Rp2295
(dp2296
g11
I00
sg18
I01
sg19
I00
sg2280
g0
(g222
g2
Ntp2297
Rp2298
(dp2299
g11
I00
sg18
I00
sg31
g25
sg19
I00
sbsg2284
g0
(g222
g2
Ntp2300
Rp2301
(dp2302
g11
I00
sg18
I01
sg31
S'SiStripApvGain2Rcd'
p2303
sg19
I00
sbsg2289
g0
(g137
g2
Ntp2304
Rp2305
(dp2306
g11
I00
sg18
I00
sg31
F1.0
sg19
I00
sbsg69
(lp2307
g2284
ag2289
ag2280
asbatp2308
Rp2309
(dp2310
g11
I00
sg18
I01
sg19
I00
sg132
I1
sbsg148
S'siStripGainESProducer'
p2311
sg156
S'SiStripGainESProducer'
p2312
sbsI139935283253008
g0
(g182
g2
Ntp2313
Rp2314
(dp2315
g69
(lp2316
sg11
I00
sg19
I00
sg12
I53
sg93
g188
sg148
S'EcalLaserCorrectionService'
p2317
sg156
g2317
sbsI139935283693904
g1343
sI139935283396496
g1353
sI139935282733968
g9
sI139935283693712
g1271
sI139935283023952
g1284
sI139935283025360
g610
sI139935283106000
g0
(g182
g2
Ntp2318
Rp2319
(dp2320
g69
(lp2321
g382
asg11
I00
sg382
g0
(g222
g2
Ntp2322
Rp2323
(dp2324
g11
I00
sg18
I01
sg31
g1247
sg19
I01
sbsg19
I01
sg12
I5
sg93
S'/cvmfs/cms.cern.ch/slc7_amd64_gcc700/cms/cmssw/CMSSW_10_2_3/python/Alignment/CommonAlignmentProducer/fakeForIdealAlignmentProducer_cfi.py'
p2325
sg148
S'fakeForIdealAlignment'
p2326
sg156
S'FakeAlignmentProducer'
p2327
sbsI139935283052816
g0
(g182
g2
Ntp2328
Rp2329
(dp2330
g69
(lp2331
S'MergePosition'
p2332
aS'Exclude'
p2333
ag382
asg11
I00
sg382
g0
(g222
g2
Ntp2334
Rp2335
(dp2336
g11
I00
sg18
I01
sg31
g25
sg19
I00
sbsg19
I00
sg12
I53
sg2332
g0
(g27
g2
Ntp2337
Rp2338
(dp2339
g11
I00
sg18
I00
sg31
I00
sg19
I00
sbsg93
g188
sg148
S'hcalTopologyIdeal'
p2340
sg2333
g0
(g222
g2
Ntp2341
Rp2342
(dp2343
g11
I00
sg18
I00
sg31
g25
sg19
I00
sbsg156
S'HcalTopologyIdealEP'
p2344
sbsI139935283197520
g236
sI139935283109264
g0
(g182
g2
Ntp2345
Rp2346
(dp2347
g69
(lp2348
S'version'
p2349
ag1304
ag355
asg11
I00
sg19
I01
sg12
I53
sg93
g188
sg355
g0
(g222
g2
Ntp2350
Rp2351
(dp2352
g11
I00
sg18
I00
sg31
S'ParabolicMf'
p2353
sg19
I01
sbsg2349
g0
(g222
g2
Ntp2354
Rp2355
(dp2356
g11
I00
sg18
I01
sg31
S'Parabolic'
p2357
sg19
I00
sbsg1304
g0
(g267
g2
Ntp2358
Rp2359
(dp2360
g11
I00
sg18
I01
sg31
I-1
sg19
I00
sbsg148
S'ParabolicParametrizedMagneticFieldProducer'
p2361
sg156
S'AutoParametrizedMagneticFieldProducer'
p2362
sbsI139935283107792
g351
sI139935283106256
g0
(g182
g2
Ntp2363
Rp2364
(dp2365
g69
(lp2366
g382
ag1993
ag1994
ag1995
ag1094
ag1996
ag1997
ag1998
ag413
asg11
I00
sg382
g0
(g222
g2
Ntp2367
Rp2368
(dp2369
g11
I00
sg18
I01
sg31
g1243
sg19
I01
sbsg19
I01
sg1994
g0
(g27
g2
Ntp2370
Rp2371
(dp2372
g11
I00
sg18
I00
sg31
I00
sg19
I00
sbsg93
S'/cvmfs/cms.cern.ch/slc7_amd64_gcc700/cms/cmssw/CMSSW_10_2_3/python/Geometry/CSCGeometryBuilder/idealForDigiCscGeometryDB_cff.py'
p2373
sg1995
g0
(g27
g2
Ntp2374
Rp2375
(dp2376
g11
I00
sg18
I01
sg31
I01
sg19
I00
sbsg1094
g0
(g222
g2
Ntp2377
Rp2378
(dp2379
g11
I00
sg18
I01
sg31
g1247
sg19
I01
sbsg1996
g0
(g27
g2
Ntp2380
Rp2381
(dp2382
g11
I00
sg18
I01
sg31
I00
sg19
I00
sbsg1993
g0
(g27
g2
Ntp2383
Rp2384
(dp2385
g11
I00
sg18
I01
sg31
I00
sg19
I00
sbsg12
I8
sg1998
g0
(g27
g2
Ntp2386
Rp2387
(dp2388
g11
I00
sg18
I01
sg31
I00
sg19
I00
sbsg148
S'idealForDigiCSCGeometry'
p2389
sg1997
g0
(g27
g2
Ntp2390
Rp2391
(dp2392
g11
I00
sg18
I01
sg31
I01
sg19
I00
sbsg413
g0
(g27
g2
Ntp2393
Rp2394
(dp2395
g11
I00
sg18
I01
sg31
I00
sg19
I01
sbsg156
g1988
sbsI139935283165456
g1215
sI139935283196496
g422
sI139935283466896
g0
(g182
g2
Ntp2396
Rp2397
(dp2398
g69
(lp2399
g1147
aS'LorentzAngleDeconvMode'
p2400
aS'LorentzAnglePeakMode'
p2401
asg11
I00
sg19
I00
sg12
I53
sg93
g188
sg1147
g0
(g394
g2
Ntp2402
Rp2403
(dp2404
g11
I00
sg18
I01
sg19
I00
sg355
g0
(g222
g2
Ntp2405
Rp2406
(dp2407
g11
I00
sg18
I00
sg31
g25
sg19
I00
sbsg484
g0
(g222
g2
Ntp2408
Rp2409
(dp2410
g11
I00
sg18
I01
sg31
g1159
sg19
I00
sbsg69
(lp2411
g484
ag355
asbsg148
S'siStripLorentzAngleDepESProducer'
p2412
sg2401
g0
(g394
g2
Ntp2413
Rp2414
(dp2415
g11
I00
sg18
I01
sg19
I00
sg355
g0
(g222
g2
Ntp2416
Rp2417
(dp2418
g11
I00
sg18
I00
sg31
g1167
sg19
I00
sbsg484
g0
(g222
g2
Ntp2419
Rp2420
(dp2421
g11
I00
sg18
I01
sg31
S'SiStripLorentzAngleRcd'
p2422
sg19
I00
sbsg69
(lp2423
g484
ag355
asbsg156
S'SiStripLorentzAngleDepESProducer'
p2424
sg2400
g0
(g394
g2
Ntp2425
Rp2426
(dp2427
g11
I00
sg18
I01
sg19
I00
sg355
g0
(g222
g2
Ntp2428
Rp2429
(dp2430
g11
I00
sg18
I00
sg31
g1179
sg19
I00
sbsg484
g0
(g222
g2
Ntp2431
Rp2432
(dp2433
g11
I00
sg18
I01
sg31
g2422
sg19
I00
sbsg69
(lp2434
g484
ag355
asbsbsI139935282983952
g0
(g182
g2
Ntp2435
Rp2436
(dp2437
g69
(lp2438
g382
aS'PrintDebugOutput'
p2439
aS'ThresholdForReducedGranularity'
p2440
aS'UseEmptyRunInfo'
p2441
aS'ReduceGranularity'
p2442
ag478
asg11
I00
sg382
g0
(g222
g2
Ntp2443
Rp2444
(dp2445
g11
I00
sg18
I01
sg31
g25
sg19
I00
sbsg19
I01
sg12
I53
sg93
g188
sg2440
g0
(g137
g2
Ntp2446
Rp2447
(dp2448
g11
I00
sg18
I01
sg31
F0.3
sg19
I00
sbsg148
S'siStripQualityESProducer'
p2449
sg2441
g0
(g27
g2
Ntp2450
Rp2451
(dp2452
g11
I00
sg18
I01
sg31
I00
sg19
I00
sbsg2442
g0
(g27
g2
Ntp2453
Rp2454
(dp2455
g11
I00
sg18
I01
sg31
I00
sg19
I00
sbsg478
g0
(g479
g106
(lp2456
g0
(g394
g2
Ntp2457
Rp2458
(dp2459
g11
I00
sg18
I01
sg19
I00
sg484
g0
(g222
g2
Ntp2460
Rp2461
(dp2462
g11
I00
sg18
I01
sg31
S'SiStripDetVOffRcd'
p2463
sg19
I00
sbsg489
g0
(g222
g2
Ntp2464
Rp2465
(dp2466
g11
I00
sg18
I01
sg31
g25
sg19
I00
sbsg69
(lp2467
g484
ag489
asbag0
(g394
g2
Ntp2468
Rp2469
(dp2470
g11
I00
sg18
I01
sg19
I00
sg484
g0
(g222
g2
Ntp2471
Rp2472
(dp2473
g11
I00
sg18
I01
sg31
S'SiStripDetCablingRcd'
p2474
sg19
I00
sbsg489
g0
(g222
g2
Ntp2475
Rp2476
(dp2477
g11
I00
sg18
I01
sg31
g25
sg19
I00
sbsg69
(lp2478
g484
ag489
asbag0
(g394
g2
Ntp2479
Rp2480
(dp2481
g11
I00
sg18
I01
sg19
I00
sg484
g0
(g222
g2
Ntp2482
Rp2483
(dp2484
g11
I00
sg18
I01
sg31
S'RunInfoRcd'
p2485
sg19
I00
sbsg489
g0
(g222
g2
Ntp2486
Rp2487
(dp2488
g11
I00
sg18
I01
sg31
g25
sg19
I00
sbsg69
(lp2489
g484
ag489
asbag0
(g394
g2
Ntp2490
Rp2491
(dp2492
g11
I00
sg18
I01
sg19
I00
sg484
g0
(g222
g2
Ntp2493
Rp2494
(dp2495
g11
I00
sg18
I01
sg31
S'SiStripBadChannelRcd'
p2496
sg19
I00
sbsg489
g0
(g222
g2
Ntp2497
Rp2498
(dp2499
g11
I00
sg18
I01
sg31
g25
sg19
I00
sbsg69
(lp2500
g484
ag489
asbag0
(g394
g2
Ntp2501
Rp2502
(dp2503
g11
I00
sg18
I01
sg19
I00
sg484
g0
(g222
g2
Ntp2504
Rp2505
(dp2506
g11
I00
sg18
I01
sg31
S'SiStripBadFiberRcd'
p2507
sg19
I00
sbsg489
g0
(g222
g2
Ntp2508
Rp2509
(dp2510
g11
I00
sg18
I01
sg31
g25
sg19
I00
sbsg69
(lp2511
g484
ag489
asbag0
(g394
g2
Ntp2512
Rp2513
(dp2514
g11
I00
sg18
I01
sg19
I00
sg484
g0
(g222
g2
Ntp2515
Rp2516
(dp2517
g11
I00
sg18
I01
sg31
S'SiStripBadModuleRcd'
p2518
sg19
I00
sbsg489
g0
(g222
g2
Ntp2519
Rp2520
(dp2521
g11
I00
sg18
I01
sg31
g25
sg19
I00
sbsg69
(lp2522
g484
ag489
asbag0
(g394
g2
Ntp2523
Rp2524
(dp2525
g11
I00
sg18
I01
sg19
I00
sg484
g0
(g222
g2
Ntp2526
Rp2527
(dp2528
g11
I00
sg18
I01
sg31
S'SiStripBadStripRcd'
p2529
sg19
I00
sbsg489
g0
(g222
g2
Ntp2530
Rp2531
(dp2532
g11
I00
sg18
I01
sg31
g25
sg19
I00
sbsg69
(lp2533
g484
ag489
asbatp2534
Rp2535
(dp2536
g11
I00
sg18
I01
sg19
I00
sg132
I1
sbsg156
S'SiStripQualityESProducer'
p2537
sg2439
g0
(g27
g2
Ntp2538
Rp2539
(dp2540
g11
I00
sg18
I01
sg31
I00
sg19
I00
sbsbsI139935283054800
g0
(g182
g2
Ntp2541
Rp2542
(dp2543
g69
(lp2544
sg11
I00
sg19
I00
sg12
I53
sg93
g188
sg148
S'EcalElectronicsMappingBuilder'
p2545
sg156
g2545
sbssg2311
g2261
sg2071
g2061
sg2216
g2213
sg2191
g2188
sg2230
g2227
sg2412
g2397
sg2054
g2051
sg2361
g2346
sg2116
g2099
sg2202
g2196
sg2094
g2091
sg1187
g1190
sg2545
g2542
sg2186
g2119
sS'_Process__aliases'
p2546
(dp2547
sg2059
g2056
sg2317
g2314
sg2259
g2256
sg2222
g2219
sg2253
g2247
sg2211
g2205
sg2389
g2364
sS'_Process__subProcesses'
p2548
(lp2549
sg1213
g1215
sg2244
g2232
sg2340
g2329
sS'_Process__schedule'
p2550
Nsg2449
g2436
sg50
g445
sg2083
g2073
sS'_Process__modifiers'
p2551
(tsg92
g288
sS'_Process__filters'
p2552
(dp2553
g174
g236
sg92
g288
sg233
g216
ssS'_Process__esproducers'
p2554
(dp2555
g181
g184
sg1282
g1284
sg1299
g1301
sg2186
g2119
sg1054
g1056
sg1316
g1318
sg2059
g2056
sg349
g351
sg1088
g1090
sg1264
g1266
sg1321
g1323
sg2191
g2188
sg2259
g2256
sg2222
g2219
sg2211
g2205
sg2253
g2247
sg1988
g1990
sg2026
g2028
sg2034
g2036
sg1132
g1134
sg2389
g2364
sg408
g410
sg1142
g1144
sg2244
g2232
sg2311
g2261
sg2071
g2061
sg2216
g2213
sg2317
g2314
sg2545
g2542
sg2449
g2436
sg2083
g2073
sg2340
g2329
sg2361
g2346
sg2412
g2397
sg2054
g2051
sg473
g475
sg2116
g2099
sg377
g379
sg608
g610
sg2202
g2196
sg2230
g2227
sg613
g615
sg2326
g2319
sg1235
g1237
sg2094
g2091
ssS'_Process__partialschedules'
p2556
(dp2557
sg2326
g2319
sb.